
key_led_elf:     file format elf32-littlearm

Disassembly of section .text:

00000000 <_start>:
   0:	e3a00453 	mov	r0, #1392508928	; 0x53000000
   4:	e3a01000 	mov	r1, #0	; 0x0
   8:	e5801000 	str	r1, [r0]
   c:	e3a0da01 	mov	sp, #4096	; 0x1000
  10:	eb00000d 	bl	4c <main>

00000014 <halt_loop>:
  14:	eafffffe 	b	14 <halt_loop>

00000018 <wait>:
  18:	e24dd008 	sub	sp, sp, #8	; 0x8
  1c:	e58d0004 	str	r0, [sp, #4]
  20:	e59d3004 	ldr	r3, [sp, #4]
  24:	e3530000 	cmp	r3, #0	; 0x0
  28:	0a000005 	beq	44 <wait+0x2c>
  2c:	e59d3004 	ldr	r3, [sp, #4]
  30:	e2433001 	sub	r3, r3, #1	; 0x1
  34:	e58d3004 	str	r3, [sp, #4]
  38:	e59d2004 	ldr	r2, [sp, #4]
  3c:	e3520000 	cmp	r2, #0	; 0x0
  40:	1afffff9 	bne	2c <wait+0x14>
  44:	e28dd008 	add	sp, sp, #8	; 0x8
  48:	e12fff1e 	bx	lr

0000004c <main>:
  4c:	e3a01456 	mov	r1, #1442840576	; 0x56000000
  50:	e5913050 	ldr	r3, [r1, #80]
  54:	e3c330ff 	bic	r3, r3, #255	; 0xff
  58:	e5813050 	str	r3, [r1, #80]
  5c:	e5912050 	ldr	r2, [r1, #80]
  60:	e3822055 	orr	r2, r2, #85	; 0x55
  64:	e5812050 	str	r2, [r1, #80]
  68:	e5913050 	ldr	r3, [r1, #80]
  6c:	e3c33cff 	bic	r3, r3, #65280	; 0xff00
  70:	e5813050 	str	r3, [r1, #80]
  74:	e5912050 	ldr	r2, [r1, #80]
  78:	e5812050 	str	r2, [r1, #80]
  7c:	e5912054 	ldr	r2, [r1, #84]
  80:	e3120010 	tst	r2, #16	; 0x10
  84:	15913054 	ldrne	r3, [r1, #84]
  88:	05913054 	ldreq	r3, [r1, #84]
  8c:	13833001 	orrne	r3, r3, #1	; 0x1
  90:	03c33001 	biceq	r3, r3, #1	; 0x1
  94:	15813054 	strne	r3, [r1, #84]
  98:	05813054 	streq	r3, [r1, #84]
  9c:	e3120020 	tst	r2, #32	; 0x20
  a0:	15913054 	ldrne	r3, [r1, #84]
  a4:	05913054 	ldreq	r3, [r1, #84]
  a8:	13833002 	orrne	r3, r3, #2	; 0x2
  ac:	03c33002 	biceq	r3, r3, #2	; 0x2
  b0:	15813054 	strne	r3, [r1, #84]
  b4:	05813054 	streq	r3, [r1, #84]
  b8:	e3120040 	tst	r2, #64	; 0x40
  bc:	15913054 	ldrne	r3, [r1, #84]
  c0:	05913054 	ldreq	r3, [r1, #84]
  c4:	13833004 	orrne	r3, r3, #4	; 0x4
  c8:	03c33004 	biceq	r3, r3, #4	; 0x4
  cc:	15813054 	strne	r3, [r1, #84]
  d0:	05813054 	streq	r3, [r1, #84]
  d4:	e3120080 	tst	r2, #128	; 0x80
  d8:	15913054 	ldrne	r3, [r1, #84]
  dc:	05913054 	ldreq	r3, [r1, #84]
  e0:	13833008 	orrne	r3, r3, #8	; 0x8
  e4:	03c33008 	biceq	r3, r3, #8	; 0x8
  e8:	15813054 	strne	r3, [r1, #84]
  ec:	05813054 	streq	r3, [r1, #84]
  f0:	eaffffe1 	b	7c <main+0x30>