
sdram.elf:     file format elf32-littlearm

Disassembly of section .text:

30000000 <_start>:
30000000:	ea00002f 	b	300000c4 <reset>
30000004:	e59ff014 	ldr	pc, [pc, #20]	; 30000020 <und_addr>
30000008:	e59ff014 	ldr	pc, [pc, #20]	; 30000024 <swi_addr>
3000000c:	ea000053 	b	30000160 <halt>
30000010:	ea000052 	b	30000160 <halt>
30000014:	ea000051 	b	30000160 <halt>
30000018:	e59ff008 	ldr	pc, [pc, #8]	; 30000028 <irq_addr>
3000001c:	ea00004f 	b	30000160 <halt>

30000020 <und_addr>:
30000020:	3000002c 	.word	0x3000002c

30000024 <swi_addr>:
30000024:	30000070 	.word	0x30000070

30000028 <irq_addr>:
30000028:	300000b0 	.word	0x300000b0

3000002c <do_und>:
3000002c:	e3a0d30d 	mov	sp, #872415232	; 0x34000000
30000030:	e92d5fff 	push	{r0, r1, r2, r3, r4, r5, r6, r7, r8, r9, sl, fp, ip, lr}
30000034:	e10f0000 	mrs	r0, CPSR
30000038:	e59f1124 	ldr	r1, [pc, #292]	; 30000164 <halt+0x4>
3000003c:	eb0003eb 	bl	30000ff0 <printException>
30000040:	e8fd9fff 	ldm	sp!, {r0, r1, r2, r3, r4, r5, r6, r7, r8, r9, sl, fp, ip, pc}^

30000044 <und_string>:
30000044:	65646e75 	strbvs	r6, [r4, #-3701]!
30000048:	656e6966 	strbvs	r6, [lr, #-2406]!
3000004c:	6e692064 	cdpvs	0, 6, cr2, cr9, cr4, {3}
30000050:	75727473 	ldrbvc	r7, [r2, #-1139]!
30000054:	6f697463 	svcvs	0x00697463
30000058:	7865206e 	stmdavc	r5!, {r1, r2, r3, r5, r6, sp}^
3000005c:	74706563 	ldrbtvc	r6, [r0], #-1379
30000060:	006e6f69 	rsbeq	r6, lr, r9, ror #30
30000064:	e1a00000 	nop			(mov r0,r0)
30000068:	e1a00000 	nop			(mov r0,r0)
3000006c:	e1a00000 	nop			(mov r0,r0)

30000070 <do_swi>:
30000070:	e59fd0f0 	ldr	sp, [pc, #240]	; 30000168 <halt+0x8>
30000074:	e92d5fff 	push	{r0, r1, r2, r3, r4, r5, r6, r7, r8, r9, sl, fp, ip, lr}
30000078:	e1a0400e 	mov	r4, lr
3000007c:	e10f0000 	mrs	r0, CPSR
30000080:	e59f10e4 	ldr	r1, [pc, #228]	; 3000016c <halt+0xc>
30000084:	eb0003d9 	bl	30000ff0 <printException>
30000088:	e2440004 	sub	r0, r4, #4	; 0x4
3000008c:	eb000161 	bl	30000618 <printSWIVal>
30000090:	e8fd9fff 	ldm	sp!, {r0, r1, r2, r3, r4, r5, r6, r7, r8, r9, sl, fp, ip, pc}^

30000094 <swi_string>:
30000094:	20697773 	rsbcs	r7, r9, r3, ror r7
30000098:	65637865 	strbvs	r7, [r3, #-2149]!
3000009c:	6f697470 	svcvs	0x00697470
300000a0:	0000006e 	andeq	r0, r0, lr, rrx
300000a4:	e1a00000 	nop			(mov r0,r0)
300000a8:	e1a00000 	nop			(mov r0,r0)
300000ac:	e1a00000 	nop			(mov r0,r0)

300000b0 <do_irq>:
300000b0:	e59fd0b8 	ldr	sp, [pc, #184]	; 30000170 <halt+0x10>
300000b4:	e24ee004 	sub	lr, lr, #4	; 0x4
300000b8:	e92d5fff 	push	{r0, r1, r2, r3, r4, r5, r6, r7, r8, r9, sl, fp, ip, lr}
300000bc:	eb00046b 	bl	30001270 <handle_irq_c>
300000c0:	e8fd9fff 	ldm	sp!, {r0, r1, r2, r3, r4, r5, r6, r7, r8, r9, sl, fp, ip, pc}^

300000c4 <reset>:
300000c4:	e3a00453 	mov	r0, #1392508928	; 0x53000000
300000c8:	e3a01000 	mov	r1, #0	; 0x0
300000cc:	e5801000 	str	r1, [r0]
300000d0:	e3a00313 	mov	r0, #1275068416	; 0x4c000000
300000d4:	e3e01000 	mvn	r1, #0	; 0x0
300000d8:	e5801000 	str	r1, [r0]
300000dc:	e59f0090 	ldr	r0, [pc, #144]	; 30000174 <halt+0x14>
300000e0:	e3a01005 	mov	r1, #5	; 0x5
300000e4:	e5801000 	str	r1, [r0]
300000e8:	ee110f10 	mrc	15, 0, r0, cr1, cr0, {0}
300000ec:	e3800103 	orr	r0, r0, #-1073741824	; 0xc0000000
300000f0:	ee010f10 	mcr	15, 0, r0, cr1, cr0, {0}
300000f4:	e59f007c 	ldr	r0, [pc, #124]	; 30000178 <halt+0x18>
300000f8:	e59f107c 	ldr	r1, [pc, #124]	; 3000017c <halt+0x1c>
300000fc:	e5801000 	str	r1, [r0]
30000100:	e3a01000 	mov	r1, #0	; 0x0
30000104:	e5910000 	ldr	r0, [r1]
30000108:	e5811000 	str	r1, [r1]
3000010c:	e5912000 	ldr	r2, [r1]
30000110:	e1510002 	cmp	r1, r2
30000114:	e59fd064 	ldr	sp, [pc, #100]	; 30000180 <halt+0x20>
30000118:	03a0da01 	moveq	sp, #4096	; 0x1000
3000011c:	05810000 	streq	r0, [r1]
30000120:	eb00014e 	bl	30000660 <sdram_init>
30000124:	eb0001e9 	bl	300008d0 <copy2sdram>
30000128:	eb000214 	bl	30000980 <clean_bss>
3000012c:	e10f0000 	mrs	r0, CPSR
30000130:	e3c0000f 	bic	r0, r0, #15	; 0xf
30000134:	e3c00080 	bic	r0, r0, #128	; 0x80
30000138:	e129f000 	msr	CPSR_fc, r0
3000013c:	e59fd040 	ldr	sp, [pc, #64]	; 30000184 <halt+0x24>
30000140:	e59ff040 	ldr	pc, [pc, #64]	; 30000188 <halt+0x28>

30000144 <sdram>:
30000144:	eb00006e 	bl	30000304 <uart0_init>
30000148:	eb000122 	bl	300005d8 <print1>

3000014c <und_code>:
3000014c:	deadc0de 	.word	0xdeadc0de
30000150:	eb000128 	bl	300005f8 <print2>
30000154:	ef000123 	svc	0x00000123
30000158:	e59fe02c 	ldr	lr, [pc, #44]	; 3000018c <halt+0x2c>
3000015c:	e59ff02c 	ldr	pc, [pc, #44]	; 30000190 <halt+0x30>

30000160 <halt>:
30000160:	eafffffe 	b	30000160 <halt>
30000164:	30000044 	.word	0x30000044
30000168:	33e00000 	.word	0x33e00000
3000016c:	30000094 	.word	0x30000094
30000170:	33d00000 	.word	0x33d00000
30000174:	4c000014 	.word	0x4c000014
30000178:	4c000004 	.word	0x4c000004
3000017c:	0005c011 	.word	0x0005c011
30000180:	40001000 	.word	0x40001000
30000184:	33f00000 	.word	0x33f00000
30000188:	30000144 	.word	0x30000144
3000018c:	30000160 	.word	0x30000160
30000190:	30000f78 	.word	0x30000f78
30000194:	e1a00000 	.word	0xe1a00000
30000198:	e1a00000 	.word	0xe1a00000
3000019c:	e1a00000 	.word	0xe1a00000

300001a0 <delay>:
300001a0:	e52db004 	push	{fp}		; (str fp, [sp, #-4]!)
300001a4:	e28db000 	add	fp, sp, #0	; 0x0
300001a8:	e24dd00c 	sub	sp, sp, #12	; 0xc
300001ac:	e50b0008 	str	r0, [fp, #-8]
300001b0:	e51b2008 	ldr	r2, [fp, #-8]
300001b4:	e3520000 	cmp	r2, #0	; 0x0
300001b8:	03a03000 	moveq	r3, #0	; 0x0
300001bc:	13a03001 	movne	r3, #1	; 0x1
300001c0:	e20310ff 	and	r1, r3, #255	; 0xff
300001c4:	e2423001 	sub	r3, r2, #1	; 0x1
300001c8:	e50b3008 	str	r3, [fp, #-8]
300001cc:	e3510000 	cmp	r1, #0	; 0x0
300001d0:	1afffff6 	bne	300001b0 <delay+0x10>
300001d4:	e28bd000 	add	sp, fp, #0	; 0x0
300001d8:	e8bd0800 	pop	{fp}
300001dc:	e12fff1e 	bx	lr

300001e0 <led_init>:
300001e0:	e52db004 	push	{fp}		; (str fp, [sp, #-4]!)
300001e4:	e28db000 	add	fp, sp, #0	; 0x0
300001e8:	e24dd00c 	sub	sp, sp, #12	; 0xc
300001ec:	e3a02456 	mov	r2, #1442840576	; 0x56000000
300001f0:	e2822050 	add	r2, r2, #80	; 0x50
300001f4:	e3a03456 	mov	r3, #1442840576	; 0x56000000
300001f8:	e2833050 	add	r3, r3, #80	; 0x50
300001fc:	e5933000 	ldr	r3, [r3]
30000200:	e3c33c3f 	bic	r3, r3, #16128	; 0x3f00
30000204:	e5823000 	str	r3, [r2]
30000208:	e3a02456 	mov	r2, #1442840576	; 0x56000000
3000020c:	e2822050 	add	r2, r2, #80	; 0x50
30000210:	e3a03456 	mov	r3, #1442840576	; 0x56000000
30000214:	e2833050 	add	r3, r3, #80	; 0x50
30000218:	e5933000 	ldr	r3, [r3]
3000021c:	e3833c15 	orr	r3, r3, #5376	; 0x1500
30000220:	e5823000 	str	r3, [r2]
30000224:	e28bd000 	add	sp, fp, #0	; 0x0
30000228:	e8bd0800 	pop	{fp}
3000022c:	e12fff1e 	bx	lr

30000230 <led_test>:
30000230:	e92d4800 	push	{fp, lr}
30000234:	e28db004 	add	fp, sp, #4	; 0x4
30000238:	e24dd008 	sub	sp, sp, #8	; 0x8
3000023c:	e3a03000 	mov	r3, #0	; 0x0
30000240:	e50b300c 	str	r3, [fp, #-12]
30000244:	e3a02456 	mov	r2, #1442840576	; 0x56000000
30000248:	e2822050 	add	r2, r2, #80	; 0x50
3000024c:	e3a03456 	mov	r3, #1442840576	; 0x56000000
30000250:	e2833050 	add	r3, r3, #80	; 0x50
30000254:	e5933000 	ldr	r3, [r3]
30000258:	e3c33c3f 	bic	r3, r3, #16128	; 0x3f00
3000025c:	e5823000 	str	r3, [r2]
30000260:	e3a02456 	mov	r2, #1442840576	; 0x56000000
30000264:	e2822050 	add	r2, r2, #80	; 0x50
30000268:	e3a03456 	mov	r3, #1442840576	; 0x56000000
3000026c:	e2833050 	add	r3, r3, #80	; 0x50
30000270:	e5933000 	ldr	r3, [r3]
30000274:	e3833c15 	orr	r3, r3, #5376	; 0x1500
30000278:	e5823000 	str	r3, [r2]
3000027c:	e51b300c 	ldr	r3, [fp, #-12]
30000280:	e1e03003 	mvn	r3, r3
30000284:	e50b3008 	str	r3, [fp, #-8]
30000288:	e51b3008 	ldr	r3, [fp, #-8]
3000028c:	e2033007 	and	r3, r3, #7	; 0x7
30000290:	e50b3008 	str	r3, [fp, #-8]
30000294:	e3a02456 	mov	r2, #1442840576	; 0x56000000
30000298:	e2822054 	add	r2, r2, #84	; 0x54
3000029c:	e3a03456 	mov	r3, #1442840576	; 0x56000000
300002a0:	e2833054 	add	r3, r3, #84	; 0x54
300002a4:	e5933000 	ldr	r3, [r3]
300002a8:	e3c33070 	bic	r3, r3, #112	; 0x70
300002ac:	e5823000 	str	r3, [r2]
300002b0:	e3a02456 	mov	r2, #1442840576	; 0x56000000
300002b4:	e2822054 	add	r2, r2, #84	; 0x54
300002b8:	e3a03456 	mov	r3, #1442840576	; 0x56000000
300002bc:	e2833054 	add	r3, r3, #84	; 0x54
300002c0:	e5931000 	ldr	r1, [r3]
300002c4:	e51b3008 	ldr	r3, [fp, #-8]
300002c8:	e1a03203 	lsl	r3, r3, #4
300002cc:	e1813003 	orr	r3, r1, r3
300002d0:	e5823000 	str	r3, [r2]
300002d4:	e3a00b61 	mov	r0, #99328	; 0x18400
300002d8:	e2800e2a 	add	r0, r0, #672	; 0x2a0
300002dc:	ebffffaf 	bl	300001a0 <delay>
300002e0:	e51b300c 	ldr	r3, [fp, #-12]
300002e4:	e2833001 	add	r3, r3, #1	; 0x1
300002e8:	e50b300c 	str	r3, [fp, #-12]
300002ec:	e51b300c 	ldr	r3, [fp, #-12]
300002f0:	e3530008 	cmp	r3, #8	; 0x8
300002f4:	1affffe0 	bne	3000027c <led_test+0x4c>
300002f8:	e3a03000 	mov	r3, #0	; 0x0
300002fc:	e50b300c 	str	r3, [fp, #-12]
30000300:	eaffffdd 	b	3000027c <led_test+0x4c>

30000304 <uart0_init>:
30000304:	e52db004 	push	{fp}		; (str fp, [sp, #-4]!)
30000308:	e28db000 	add	fp, sp, #0	; 0x0
3000030c:	e3a02456 	mov	r2, #1442840576	; 0x56000000
30000310:	e2822070 	add	r2, r2, #112	; 0x70
30000314:	e3a03456 	mov	r3, #1442840576	; 0x56000000
30000318:	e2833070 	add	r3, r3, #112	; 0x70
3000031c:	e5933000 	ldr	r3, [r3]
30000320:	e3c330f0 	bic	r3, r3, #240	; 0xf0
30000324:	e5823000 	str	r3, [r2]
30000328:	e3a02456 	mov	r2, #1442840576	; 0x56000000
3000032c:	e2822070 	add	r2, r2, #112	; 0x70
30000330:	e3a03456 	mov	r3, #1442840576	; 0x56000000
30000334:	e2833070 	add	r3, r3, #112	; 0x70
30000338:	e5933000 	ldr	r3, [r3]
3000033c:	e38330a0 	orr	r3, r3, #160	; 0xa0
30000340:	e5823000 	str	r3, [r2]
30000344:	e3a02456 	mov	r2, #1442840576	; 0x56000000
30000348:	e2822078 	add	r2, r2, #120	; 0x78
3000034c:	e3a03456 	mov	r3, #1442840576	; 0x56000000
30000350:	e2833078 	add	r3, r3, #120	; 0x78
30000354:	e5933000 	ldr	r3, [r3]
30000358:	e3c3300c 	bic	r3, r3, #12	; 0xc
3000035c:	e5823000 	str	r3, [r2]
30000360:	e3a02245 	mov	r2, #1342177284	; 0x50000004
30000364:	e3a03005 	mov	r3, #5	; 0x5
30000368:	e5823000 	str	r3, [r2]
3000036c:	e3a03205 	mov	r3, #1342177280	; 0x50000000
30000370:	e2833028 	add	r3, r3, #40	; 0x28
30000374:	e3a0201a 	mov	r2, #26	; 0x1a
30000378:	e5832000 	str	r2, [r3]
3000037c:	e3a02205 	mov	r2, #1342177280	; 0x50000000
30000380:	e3a03003 	mov	r3, #3	; 0x3
30000384:	e5823000 	str	r3, [r2]
30000388:	e28bd000 	add	sp, fp, #0	; 0x0
3000038c:	e8bd0800 	pop	{fp}
30000390:	e12fff1e 	bx	lr

30000394 <putchar>:
30000394:	e52db004 	push	{fp}		; (str fp, [sp, #-4]!)
30000398:	e28db000 	add	fp, sp, #0	; 0x0
3000039c:	e24dd00c 	sub	sp, sp, #12	; 0xc
300003a0:	e50b0008 	str	r0, [fp, #-8]
300003a4:	e3a03205 	mov	r3, #1342177280	; 0x50000000
300003a8:	e2833010 	add	r3, r3, #16	; 0x10
300003ac:	e5933000 	ldr	r3, [r3]
300003b0:	e2033004 	and	r3, r3, #4	; 0x4
300003b4:	e3530000 	cmp	r3, #0	; 0x0
300003b8:	0afffff9 	beq	300003a4 <putchar+0x10>
300003bc:	e3a02205 	mov	r2, #1342177280	; 0x50000000
300003c0:	e2822020 	add	r2, r2, #32	; 0x20
300003c4:	e51b3008 	ldr	r3, [fp, #-8]
300003c8:	e20330ff 	and	r3, r3, #255	; 0xff
300003cc:	e5c23000 	strb	r3, [r2]
300003d0:	e3a03000 	mov	r3, #0	; 0x0
300003d4:	e1a00003 	mov	r0, r3
300003d8:	e28bd000 	add	sp, fp, #0	; 0x0
300003dc:	e8bd0800 	pop	{fp}
300003e0:	e12fff1e 	bx	lr

300003e4 <getchar>:
300003e4:	e52db004 	push	{fp}		; (str fp, [sp, #-4]!)
300003e8:	e28db000 	add	fp, sp, #0	; 0x0
300003ec:	e3a03205 	mov	r3, #1342177280	; 0x50000000
300003f0:	e2833010 	add	r3, r3, #16	; 0x10
300003f4:	e5933000 	ldr	r3, [r3]
300003f8:	e2033001 	and	r3, r3, #1	; 0x1
300003fc:	e3530000 	cmp	r3, #0	; 0x0
30000400:	0afffff9 	beq	300003ec <getchar+0x8>
30000404:	e3a03205 	mov	r3, #1342177280	; 0x50000000
30000408:	e2833024 	add	r3, r3, #36	; 0x24
3000040c:	e5d33000 	ldrb	r3, [r3]
30000410:	e20330ff 	and	r3, r3, #255	; 0xff
30000414:	e1a00003 	mov	r0, r3
30000418:	e28bd000 	add	sp, fp, #0	; 0x0
3000041c:	e8bd0800 	pop	{fp}
30000420:	e12fff1e 	bx	lr

30000424 <puts>:
30000424:	e92d4800 	push	{fp, lr}
30000428:	e28db004 	add	fp, sp, #4	; 0x4
3000042c:	e24dd008 	sub	sp, sp, #8	; 0x8
30000430:	e50b0008 	str	r0, [fp, #-8]
30000434:	ea000006 	b	30000454 <puts+0x30>
30000438:	e51b3008 	ldr	r3, [fp, #-8]
3000043c:	e5d33000 	ldrb	r3, [r3]
30000440:	e1a00003 	mov	r0, r3
30000444:	ebffffd2 	bl	30000394 <putchar>
30000448:	e51b3008 	ldr	r3, [fp, #-8]
3000044c:	e2833001 	add	r3, r3, #1	; 0x1
30000450:	e50b3008 	str	r3, [fp, #-8]
30000454:	e51b3008 	ldr	r3, [fp, #-8]
30000458:	e5d33000 	ldrb	r3, [r3]
3000045c:	e3530000 	cmp	r3, #0	; 0x0
30000460:	1afffff4 	bne	30000438 <puts+0x14>
30000464:	e3a03000 	mov	r3, #0	; 0x0
30000468:	e1a00003 	mov	r0, r3
3000046c:	e24bd004 	sub	sp, fp, #4	; 0x4
30000470:	e8bd4800 	pop	{fp, lr}
30000474:	e12fff1e 	bx	lr

30000478 <printHex>:
30000478:	e92d4800 	push	{fp, lr}
3000047c:	e28db004 	add	fp, sp, #4	; 0x4
30000480:	e24dd030 	sub	sp, sp, #48	; 0x30
30000484:	e50b0030 	str	r0, [fp, #-48]
30000488:	e3a03000 	mov	r3, #0	; 0x0
3000048c:	e50b3008 	str	r3, [fp, #-8]
30000490:	ea00000e 	b	300004d0 <printHex+0x58>
30000494:	e51b1008 	ldr	r1, [fp, #-8]
30000498:	e51b3030 	ldr	r3, [fp, #-48]
3000049c:	e203000f 	and	r0, r3, #15	; 0xf
300004a0:	e3e02023 	mvn	r2, #35	; 0x23
300004a4:	e1a03101 	lsl	r3, r1, #2
300004a8:	e24b1004 	sub	r1, fp, #4	; 0x4
300004ac:	e0813003 	add	r3, r1, r3
300004b0:	e0833002 	add	r3, r3, r2
300004b4:	e5830000 	str	r0, [r3]
300004b8:	e51b3030 	ldr	r3, [fp, #-48]
300004bc:	e1a03223 	lsr	r3, r3, #4
300004c0:	e50b3030 	str	r3, [fp, #-48]
300004c4:	e51b3008 	ldr	r3, [fp, #-8]
300004c8:	e2833001 	add	r3, r3, #1	; 0x1
300004cc:	e50b3008 	str	r3, [fp, #-8]
300004d0:	e51b3008 	ldr	r3, [fp, #-8]
300004d4:	e3530007 	cmp	r3, #7	; 0x7
300004d8:	daffffed 	ble	30000494 <printHex+0x1c>
300004dc:	e59f00f0 	ldr	r0, [pc, #240]	; 300005d4 <printHex+0x15c>
300004e0:	ebffffcf 	bl	30000424 <puts>
300004e4:	e3a03007 	mov	r3, #7	; 0x7
300004e8:	e50b3008 	str	r3, [fp, #-8]
300004ec:	ea000032 	b	300005bc <printHex+0x144>
300004f0:	e51b3008 	ldr	r3, [fp, #-8]
300004f4:	e3e02023 	mvn	r2, #35	; 0x23
300004f8:	e1a03103 	lsl	r3, r3, #2
300004fc:	e24b1004 	sub	r1, fp, #4	; 0x4
30000500:	e0813003 	add	r3, r1, r3
30000504:	e0833002 	add	r3, r3, r2
30000508:	e5933000 	ldr	r3, [r3]
3000050c:	e3530009 	cmp	r3, #9	; 0x9
30000510:	8a00000a 	bhi	30000540 <printHex+0xc8>
30000514:	e51b3008 	ldr	r3, [fp, #-8]
30000518:	e3e02023 	mvn	r2, #35	; 0x23
3000051c:	e1a03103 	lsl	r3, r3, #2
30000520:	e24b1004 	sub	r1, fp, #4	; 0x4
30000524:	e0813003 	add	r3, r1, r3
30000528:	e0833002 	add	r3, r3, r2
3000052c:	e5933000 	ldr	r3, [r3]
30000530:	e2833030 	add	r3, r3, #48	; 0x30
30000534:	e1a00003 	mov	r0, r3
30000538:	ebffff95 	bl	30000394 <putchar>
3000053c:	ea00001b 	b	300005b0 <printHex+0x138>
30000540:	e51b3008 	ldr	r3, [fp, #-8]
30000544:	e3e02023 	mvn	r2, #35	; 0x23
30000548:	e1a03103 	lsl	r3, r3, #2
3000054c:	e24b1004 	sub	r1, fp, #4	; 0x4
30000550:	e0813003 	add	r3, r1, r3
30000554:	e0833002 	add	r3, r3, r2
30000558:	e5933000 	ldr	r3, [r3]
3000055c:	e3530009 	cmp	r3, #9	; 0x9
30000560:	9a000012 	bls	300005b0 <printHex+0x138>
30000564:	e51b3008 	ldr	r3, [fp, #-8]
30000568:	e3e02023 	mvn	r2, #35	; 0x23
3000056c:	e1a03103 	lsl	r3, r3, #2
30000570:	e24b1004 	sub	r1, fp, #4	; 0x4
30000574:	e0813003 	add	r3, r1, r3
30000578:	e0833002 	add	r3, r3, r2
3000057c:	e5933000 	ldr	r3, [r3]
30000580:	e353000f 	cmp	r3, #15	; 0xf
30000584:	8a000009 	bhi	300005b0 <printHex+0x138>
30000588:	e51b3008 	ldr	r3, [fp, #-8]
3000058c:	e3e02023 	mvn	r2, #35	; 0x23
30000590:	e1a03103 	lsl	r3, r3, #2
30000594:	e24b1004 	sub	r1, fp, #4	; 0x4
30000598:	e0813003 	add	r3, r1, r3
3000059c:	e0833002 	add	r3, r3, r2
300005a0:	e5933000 	ldr	r3, [r3]
300005a4:	e2833037 	add	r3, r3, #55	; 0x37
300005a8:	e1a00003 	mov	r0, r3
300005ac:	ebffff78 	bl	30000394 <putchar>
300005b0:	e51b3008 	ldr	r3, [fp, #-8]
300005b4:	e2433001 	sub	r3, r3, #1	; 0x1
300005b8:	e50b3008 	str	r3, [fp, #-8]
300005bc:	e51b3008 	ldr	r3, [fp, #-8]
300005c0:	e3530000 	cmp	r3, #0	; 0x0
300005c4:	aaffffc9 	bge	300004f0 <printHex+0x78>
300005c8:	e24bd004 	sub	sp, fp, #4	; 0x4
300005cc:	e8bd4800 	pop	{fp, lr}
300005d0:	e12fff1e 	bx	lr
300005d4:	300055f0 	.word	0x300055f0

300005d8 <print1>:
300005d8:	e92d4800 	push	{fp, lr}
300005dc:	e28db004 	add	fp, sp, #4	; 0x4
300005e0:	e59f000c 	ldr	r0, [pc, #12]	; 300005f4 <print1+0x1c>
300005e4:	ebffff8e 	bl	30000424 <puts>
300005e8:	e24bd004 	sub	sp, fp, #4	; 0x4
300005ec:	e8bd4800 	pop	{fp, lr}
300005f0:	e12fff1e 	bx	lr
300005f4:	300055f4 	.word	0x300055f4

300005f8 <print2>:
300005f8:	e92d4800 	push	{fp, lr}
300005fc:	e28db004 	add	fp, sp, #4	; 0x4
30000600:	e59f000c 	ldr	r0, [pc, #12]	; 30000614 <print2+0x1c>
30000604:	ebffff86 	bl	30000424 <puts>
30000608:	e24bd004 	sub	sp, fp, #4	; 0x4
3000060c:	e8bd4800 	pop	{fp, lr}
30000610:	e12fff1e 	bx	lr
30000614:	300055fc 	.word	0x300055fc

30000618 <printSWIVal>:
30000618:	e92d4800 	push	{fp, lr}
3000061c:	e28db004 	add	fp, sp, #4	; 0x4
30000620:	e24dd008 	sub	sp, sp, #8	; 0x8
30000624:	e50b0008 	str	r0, [fp, #-8]
30000628:	e59f0028 	ldr	r0, [pc, #40]	; 30000658 <printSWIVal+0x40>
3000062c:	ebffff7c 	bl	30000424 <puts>
30000630:	e51b3008 	ldr	r3, [fp, #-8]
30000634:	e5933000 	ldr	r3, [r3]
30000638:	e3c334ff 	bic	r3, r3, #-16777216	; 0xff000000
3000063c:	e1a00003 	mov	r0, r3
30000640:	ebffff8c 	bl	30000478 <printHex>
30000644:	e59f0010 	ldr	r0, [pc, #16]	; 3000065c <printSWIVal+0x44>
30000648:	ebffff75 	bl	30000424 <puts>
3000064c:	e24bd004 	sub	sp, fp, #4	; 0x4
30000650:	e8bd4800 	pop	{fp, lr}
30000654:	e12fff1e 	bx	lr
30000658:	30005604 	.word	0x30005604
3000065c:	30005610 	.word	0x30005610

30000660 <sdram_init>:
30000660:	e52db004 	push	{fp}		; (str fp, [sp, #-4]!)
30000664:	e28db000 	add	fp, sp, #0	; 0x0
30000668:	e3a02312 	mov	r2, #1207959552	; 0x48000000
3000066c:	e3a03422 	mov	r3, #570425344	; 0x22000000
30000670:	e5823000 	str	r3, [r2]
30000674:	e3a02312 	mov	r2, #1207959552	; 0x48000000
30000678:	e282201c 	add	r2, r2, #28	; 0x1c
3000067c:	e3a03906 	mov	r3, #98304	; 0x18000
30000680:	e2833001 	add	r3, r3, #1	; 0x1
30000684:	e5823000 	str	r3, [r2]
30000688:	e3a02312 	mov	r2, #1207959552	; 0x48000000
3000068c:	e2822020 	add	r2, r2, #32	; 0x20
30000690:	e3a03906 	mov	r3, #98304	; 0x18000
30000694:	e2833001 	add	r3, r3, #1	; 0x1
30000698:	e5823000 	str	r3, [r2]
3000069c:	e3a02312 	mov	r2, #1207959552	; 0x48000000
300006a0:	e2822024 	add	r2, r2, #36	; 0x24
300006a4:	e3a03721 	mov	r3, #8650752	; 0x840000
300006a8:	e2833e4f 	add	r3, r3, #1264	; 0x4f0
300006ac:	e2833005 	add	r3, r3, #5	; 0x5
300006b0:	e5823000 	str	r3, [r2]
300006b4:	e3a03312 	mov	r3, #1207959552	; 0x48000000
300006b8:	e2833028 	add	r3, r3, #40	; 0x28
300006bc:	e3a020b1 	mov	r2, #177	; 0xb1
300006c0:	e5832000 	str	r2, [r3]
300006c4:	e3a03312 	mov	r3, #1207959552	; 0x48000000
300006c8:	e283302c 	add	r3, r3, #44	; 0x2c
300006cc:	e3a02020 	mov	r2, #32	; 0x20
300006d0:	e5832000 	str	r2, [r3]
300006d4:	e3a03312 	mov	r3, #1207959552	; 0x48000000
300006d8:	e2833030 	add	r3, r3, #48	; 0x30
300006dc:	e3a02020 	mov	r2, #32	; 0x20
300006e0:	e5832000 	str	r2, [r3]
300006e4:	e28bd000 	add	sp, fp, #0	; 0x0
300006e8:	e8bd0800 	pop	{fp}
300006ec:	e12fff1e 	bx	lr

300006f0 <sdram_init2>:
300006f0:	e92d0810 	push	{r4, fp}
300006f4:	e28db004 	add	fp, sp, #4	; 0x4
300006f8:	e24dd040 	sub	sp, sp, #64	; 0x40
300006fc:	e59f308c 	ldr	r3, [pc, #140]	; 30000790 <sdram_init2+0xa0>
30000700:	e24b4040 	sub	r4, fp, #64	; 0x40
30000704:	e1a0c003 	mov	ip, r3
30000708:	e8bc000f 	ldm	ip!, {r0, r1, r2, r3}
3000070c:	e8a4000f 	stmia	r4!, {r0, r1, r2, r3}
30000710:	e8bc000f 	ldm	ip!, {r0, r1, r2, r3}
30000714:	e8a4000f 	stmia	r4!, {r0, r1, r2, r3}
30000718:	e8bc000f 	ldm	ip!, {r0, r1, r2, r3}
3000071c:	e8a4000f 	stmia	r4!, {r0, r1, r2, r3}
30000720:	e59c3000 	ldr	r3, [ip]
30000724:	e5843000 	str	r3, [r4]
30000728:	e3a03312 	mov	r3, #1207959552	; 0x48000000
3000072c:	e50b300c 	str	r3, [fp, #-12]
30000730:	e3a03000 	mov	r3, #0	; 0x0
30000734:	e50b3008 	str	r3, [fp, #-8]
30000738:	ea00000e 	b	30000778 <sdram_init2+0x88>
3000073c:	e51b3008 	ldr	r3, [fp, #-8]
30000740:	e3e0203b 	mvn	r2, #59	; 0x3b
30000744:	e1a03103 	lsl	r3, r3, #2
30000748:	e24b1004 	sub	r1, fp, #4	; 0x4
3000074c:	e0813003 	add	r3, r1, r3
30000750:	e0833002 	add	r3, r3, r2
30000754:	e5932000 	ldr	r2, [r3]
30000758:	e51b300c 	ldr	r3, [fp, #-12]
3000075c:	e5832000 	str	r2, [r3]
30000760:	e51b300c 	ldr	r3, [fp, #-12]
30000764:	e2833004 	add	r3, r3, #4	; 0x4
30000768:	e50b300c 	str	r3, [fp, #-12]
3000076c:	e51b3008 	ldr	r3, [fp, #-8]
30000770:	e2833001 	add	r3, r3, #1	; 0x1
30000774:	e50b3008 	str	r3, [fp, #-8]
30000778:	e51b3008 	ldr	r3, [fp, #-8]
3000077c:	e353000c 	cmp	r3, #12	; 0xc
30000780:	daffffed 	ble	3000073c <sdram_init2+0x4c>
30000784:	e24bd004 	sub	sp, fp, #4	; 0x4
30000788:	e8bd0810 	pop	{r4, fp}
3000078c:	e12fff1e 	bx	lr
30000790:	30005614 	.word	0x30005614

30000794 <sdram_test>:
30000794:	e52db004 	push	{fp}		; (str fp, [sp, #-4]!)
30000798:	e28db000 	add	fp, sp, #0	; 0x0
3000079c:	e24dd014 	sub	sp, sp, #20	; 0x14
300007a0:	e3a03203 	mov	r3, #805306368	; 0x30000000
300007a4:	e50b300c 	str	r3, [fp, #-12]
300007a8:	e3a03000 	mov	r3, #0	; 0x0
300007ac:	e50b3008 	str	r3, [fp, #-8]
300007b0:	ea000007 	b	300007d4 <sdram_test+0x40>
300007b4:	e51b2008 	ldr	r2, [fp, #-8]
300007b8:	e51b300c 	ldr	r3, [fp, #-12]
300007bc:	e0832002 	add	r2, r3, r2
300007c0:	e3a03055 	mov	r3, #85	; 0x55
300007c4:	e5c23000 	strb	r3, [r2]
300007c8:	e51b3008 	ldr	r3, [fp, #-8]
300007cc:	e2833001 	add	r3, r3, #1	; 0x1
300007d0:	e50b3008 	str	r3, [fp, #-8]
300007d4:	e51b2008 	ldr	r2, [fp, #-8]
300007d8:	e3a03ff9 	mov	r3, #996	; 0x3e4
300007dc:	e2833003 	add	r3, r3, #3	; 0x3
300007e0:	e1520003 	cmp	r2, r3
300007e4:	dafffff2 	ble	300007b4 <sdram_test+0x20>
300007e8:	e3a03000 	mov	r3, #0	; 0x0
300007ec:	e50b3008 	str	r3, [fp, #-8]
300007f0:	ea00000c 	b	30000828 <sdram_test+0x94>
300007f4:	e51b2008 	ldr	r2, [fp, #-8]
300007f8:	e51b300c 	ldr	r3, [fp, #-12]
300007fc:	e0833002 	add	r3, r3, r2
30000800:	e5d33000 	ldrb	r3, [r3]
30000804:	e20330ff 	and	r3, r3, #255	; 0xff
30000808:	e3530055 	cmp	r3, #85	; 0x55
3000080c:	0a000002 	beq	3000081c <sdram_test+0x88>
30000810:	e3e03000 	mvn	r3, #0	; 0x0
30000814:	e50b3010 	str	r3, [fp, #-16]
30000818:	ea000009 	b	30000844 <sdram_test+0xb0>
3000081c:	e51b3008 	ldr	r3, [fp, #-8]
30000820:	e2833001 	add	r3, r3, #1	; 0x1
30000824:	e50b3008 	str	r3, [fp, #-8]
30000828:	e51b2008 	ldr	r2, [fp, #-8]
3000082c:	e3a03ff9 	mov	r3, #996	; 0x3e4
30000830:	e2833003 	add	r3, r3, #3	; 0x3
30000834:	e1520003 	cmp	r2, r3
30000838:	daffffed 	ble	300007f4 <sdram_test+0x60>
3000083c:	e3a03000 	mov	r3, #0	; 0x0
30000840:	e50b3010 	str	r3, [fp, #-16]
30000844:	e51b3010 	ldr	r3, [fp, #-16]
30000848:	e1a00003 	mov	r0, r3
3000084c:	e28bd000 	add	sp, fp, #0	; 0x0
30000850:	e8bd0800 	pop	{fp}
30000854:	e12fff1e 	bx	lr

30000858 <isBootFromNorFlash>:
30000858:	e52db004 	push	{fp}		; (str fp, [sp, #-4]!)
3000085c:	e28db000 	add	fp, sp, #0	; 0x0
30000860:	e24dd014 	sub	sp, sp, #20	; 0x14
30000864:	e3a03000 	mov	r3, #0	; 0x0
30000868:	e50b300c 	str	r3, [fp, #-12]
3000086c:	e51b300c 	ldr	r3, [fp, #-12]
30000870:	e5933000 	ldr	r3, [r3]
30000874:	e50b3008 	str	r3, [fp, #-8]
30000878:	e51b200c 	ldr	r2, [fp, #-12]
3000087c:	e59f3048 	ldr	r3, [pc, #72]	; 300008cc <isBootFromNorFlash+0x74>
30000880:	e5823000 	str	r3, [r2]
30000884:	e51b300c 	ldr	r3, [fp, #-12]
30000888:	e5932000 	ldr	r2, [r3]
3000088c:	e59f3038 	ldr	r3, [pc, #56]	; 300008cc <isBootFromNorFlash+0x74>
30000890:	e1520003 	cmp	r2, r3
30000894:	1a000005 	bne	300008b0 <isBootFromNorFlash+0x58>
30000898:	e51b200c 	ldr	r2, [fp, #-12]
3000089c:	e51b3008 	ldr	r3, [fp, #-8]
300008a0:	e5823000 	str	r3, [r2]
300008a4:	e3a03000 	mov	r3, #0	; 0x0
300008a8:	e50b3010 	str	r3, [fp, #-16]
300008ac:	ea000001 	b	300008b8 <isBootFromNorFlash+0x60>
300008b0:	e3a03001 	mov	r3, #1	; 0x1
300008b4:	e50b3010 	str	r3, [fp, #-16]
300008b8:	e51b3010 	ldr	r3, [fp, #-16]
300008bc:	e1a00003 	mov	r0, r3
300008c0:	e28bd000 	add	sp, fp, #0	; 0x0
300008c4:	e8bd0800 	pop	{fp}
300008c8:	e12fff1e 	bx	lr
300008cc:	12345678 	.word	0x12345678

300008d0 <copy2sdram>:
300008d0:	e92d4800 	push	{fp, lr}
300008d4:	e28db004 	add	fp, sp, #4	; 0x4
300008d8:	e24dd010 	sub	sp, sp, #16	; 0x10
300008dc:	e59f3094 	ldr	r3, [pc, #148]	; 30000978 <copy2sdram+0xa8>
300008e0:	e50b3014 	str	r3, [fp, #-20]
300008e4:	e59f3090 	ldr	r3, [pc, #144]	; 3000097c <copy2sdram+0xac>
300008e8:	e50b3010 	str	r3, [fp, #-16]
300008ec:	e3a03000 	mov	r3, #0	; 0x0
300008f0:	e50b300c 	str	r3, [fp, #-12]
300008f4:	e59f2080 	ldr	r2, [pc, #128]	; 3000097c <copy2sdram+0xac>
300008f8:	e59f3078 	ldr	r3, [pc, #120]	; 30000978 <copy2sdram+0xa8>
300008fc:	e0633002 	rsb	r3, r3, r2
30000900:	e50b3008 	str	r3, [fp, #-8]
30000904:	ebffffd3 	bl	30000858 <isBootFromNorFlash>
30000908:	e1a03000 	mov	r3, r0
3000090c:	e3530000 	cmp	r3, #0	; 0x0
30000910:	0a00000f 	beq	30000954 <copy2sdram+0x84>
30000914:	ea000009 	b	30000940 <copy2sdram+0x70>
30000918:	e51b300c 	ldr	r3, [fp, #-12]
3000091c:	e5932000 	ldr	r2, [r3]
30000920:	e51b3014 	ldr	r3, [fp, #-20]
30000924:	e5832000 	str	r2, [r3]
30000928:	e51b3014 	ldr	r3, [fp, #-20]
3000092c:	e2833004 	add	r3, r3, #4	; 0x4
30000930:	e50b3014 	str	r3, [fp, #-20]
30000934:	e51b300c 	ldr	r3, [fp, #-12]
30000938:	e2833004 	add	r3, r3, #4	; 0x4
3000093c:	e50b300c 	str	r3, [fp, #-12]
30000940:	e51b2014 	ldr	r2, [fp, #-20]
30000944:	e51b3010 	ldr	r3, [fp, #-16]
30000948:	e1520003 	cmp	r2, r3
3000094c:	3afffff1 	bcc	30000918 <copy2sdram+0x48>
30000950:	ea000005 	b	3000096c <copy2sdram+0x9c>
30000954:	eb000020 	bl	300009dc <nand_init>
30000958:	e51b300c 	ldr	r3, [fp, #-12]
3000095c:	e1a00003 	mov	r0, r3
30000960:	e51b1014 	ldr	r1, [fp, #-20]
30000964:	e51b2008 	ldr	r2, [fp, #-8]
30000968:	eb00013c 	bl	30000e60 <nand_read>
3000096c:	e24bd004 	sub	sp, fp, #4	; 0x4
30000970:	e8bd4800 	pop	{fp, lr}
30000974:	e12fff1e 	bx	lr
30000978:	30000000 	.word	0x30000000
3000097c:	30006afc 	.word	0x30006afc

30000980 <clean_bss>:
30000980:	e52db004 	push	{fp}		; (str fp, [sp, #-4]!)
30000984:	e28db000 	add	fp, sp, #0	; 0x0
30000988:	e24dd00c 	sub	sp, sp, #12	; 0xc
3000098c:	e59f3040 	ldr	r3, [pc, #64]	; 300009d4 <clean_bss+0x54>
30000990:	e50b300c 	str	r3, [fp, #-12]
30000994:	e59f303c 	ldr	r3, [pc, #60]	; 300009d8 <clean_bss+0x58>
30000998:	e50b3008 	str	r3, [fp, #-8]
3000099c:	ea000005 	b	300009b8 <clean_bss+0x38>
300009a0:	e51b200c 	ldr	r2, [fp, #-12]
300009a4:	e3a03000 	mov	r3, #0	; 0x0
300009a8:	e5823000 	str	r3, [r2]
300009ac:	e51b300c 	ldr	r3, [fp, #-12]
300009b0:	e2833004 	add	r3, r3, #4	; 0x4
300009b4:	e50b300c 	str	r3, [fp, #-12]
300009b8:	e51b200c 	ldr	r2, [fp, #-12]
300009bc:	e51b3008 	ldr	r3, [fp, #-8]
300009c0:	e1520003 	cmp	r2, r3
300009c4:	9afffff5 	bls	300009a0 <clean_bss+0x20>
300009c8:	e28bd000 	add	sp, fp, #0	; 0x0
300009cc:	e8bd0800 	pop	{fp}
300009d0:	e12fff1e 	bx	lr
300009d4:	30006afc 	.word	0x30006afc
300009d8:	30006c00 	.word	0x30006c00

300009dc <nand_init>:
300009dc:	e52db004 	push	{fp}		; (str fp, [sp, #-4]!)
300009e0:	e28db000 	add	fp, sp, #0	; 0x0
300009e4:	e3a0244e 	mov	r2, #1308622848	; 0x4e000000
300009e8:	e3a03c01 	mov	r3, #256	; 0x100
300009ec:	e5823000 	str	r3, [r2]
300009f0:	e3a0344e 	mov	r3, #1308622848	; 0x4e000000
300009f4:	e2833004 	add	r3, r3, #4	; 0x4
300009f8:	e3a02013 	mov	r2, #19	; 0x13
300009fc:	e5832000 	str	r2, [r3]
30000a00:	e28bd000 	add	sp, fp, #0	; 0x0
30000a04:	e8bd0800 	pop	{fp}
30000a08:	e12fff1e 	bx	lr

30000a0c <nand_select>:
30000a0c:	e52db004 	push	{fp}		; (str fp, [sp, #-4]!)
30000a10:	e28db000 	add	fp, sp, #0	; 0x0
30000a14:	e3a0244e 	mov	r2, #1308622848	; 0x4e000000
30000a18:	e2822004 	add	r2, r2, #4	; 0x4
30000a1c:	e3a0344e 	mov	r3, #1308622848	; 0x4e000000
30000a20:	e2833004 	add	r3, r3, #4	; 0x4
30000a24:	e5933000 	ldr	r3, [r3]
30000a28:	e3c33002 	bic	r3, r3, #2	; 0x2
30000a2c:	e5823000 	str	r3, [r2]
30000a30:	e28bd000 	add	sp, fp, #0	; 0x0
30000a34:	e8bd0800 	pop	{fp}
30000a38:	e12fff1e 	bx	lr

30000a3c <nand_deselect>:
30000a3c:	e52db004 	push	{fp}		; (str fp, [sp, #-4]!)
30000a40:	e28db000 	add	fp, sp, #0	; 0x0
30000a44:	e3a0244e 	mov	r2, #1308622848	; 0x4e000000
30000a48:	e2822004 	add	r2, r2, #4	; 0x4
30000a4c:	e3a0344e 	mov	r3, #1308622848	; 0x4e000000
30000a50:	e2833004 	add	r3, r3, #4	; 0x4
30000a54:	e5933000 	ldr	r3, [r3]
30000a58:	e3833002 	orr	r3, r3, #2	; 0x2
30000a5c:	e5823000 	str	r3, [r2]
30000a60:	e28bd000 	add	sp, fp, #0	; 0x0
30000a64:	e8bd0800 	pop	{fp}
30000a68:	e12fff1e 	bx	lr

30000a6c <nand_cmd>:
30000a6c:	e52db004 	push	{fp}		; (str fp, [sp, #-4]!)
30000a70:	e28db000 	add	fp, sp, #0	; 0x0
30000a74:	e24dd014 	sub	sp, sp, #20	; 0x14
30000a78:	e1a03000 	mov	r3, r0
30000a7c:	e54b300d 	strb	r3, [fp, #-13]
30000a80:	e3a0344e 	mov	r3, #1308622848	; 0x4e000000
30000a84:	e2833008 	add	r3, r3, #8	; 0x8
30000a88:	e55b200d 	ldrb	r2, [fp, #-13]
30000a8c:	e5c32000 	strb	r2, [r3]
30000a90:	e3a03000 	mov	r3, #0	; 0x0
30000a94:	e50b3008 	str	r3, [fp, #-8]
30000a98:	ea000002 	b	30000aa8 <nand_cmd+0x3c>
30000a9c:	e51b3008 	ldr	r3, [fp, #-8]
30000aa0:	e2833001 	add	r3, r3, #1	; 0x1
30000aa4:	e50b3008 	str	r3, [fp, #-8]
30000aa8:	e51b3008 	ldr	r3, [fp, #-8]
30000aac:	e3530009 	cmp	r3, #9	; 0x9
30000ab0:	dafffff9 	ble	30000a9c <nand_cmd+0x30>
30000ab4:	e28bd000 	add	sp, fp, #0	; 0x0
30000ab8:	e8bd0800 	pop	{fp}
30000abc:	e12fff1e 	bx	lr

30000ac0 <nand_addr>:
30000ac0:	e52db004 	push	{fp}		; (str fp, [sp, #-4]!)
30000ac4:	e28db000 	add	fp, sp, #0	; 0x0
30000ac8:	e24dd01c 	sub	sp, sp, #28	; 0x1c
30000acc:	e50b0018 	str	r0, [fp, #-24]
30000ad0:	e51b3018 	ldr	r3, [fp, #-24]
30000ad4:	e1a03a83 	lsl	r3, r3, #21
30000ad8:	e1a03aa3 	lsr	r3, r3, #21
30000adc:	e50b300c 	str	r3, [fp, #-12]
30000ae0:	e51b3018 	ldr	r3, [fp, #-24]
30000ae4:	e1a035a3 	lsr	r3, r3, #11
30000ae8:	e50b3008 	str	r3, [fp, #-8]
30000aec:	e3a0244e 	mov	r2, #1308622848	; 0x4e000000
30000af0:	e282200c 	add	r2, r2, #12	; 0xc
30000af4:	e51b300c 	ldr	r3, [fp, #-12]
30000af8:	e20330ff 	and	r3, r3, #255	; 0xff
30000afc:	e5c23000 	strb	r3, [r2]
30000b00:	e3a03000 	mov	r3, #0	; 0x0
30000b04:	e50b3010 	str	r3, [fp, #-16]
30000b08:	ea000002 	b	30000b18 <nand_addr+0x58>
30000b0c:	e51b3010 	ldr	r3, [fp, #-16]
30000b10:	e2833001 	add	r3, r3, #1	; 0x1
30000b14:	e50b3010 	str	r3, [fp, #-16]
30000b18:	e51b3010 	ldr	r3, [fp, #-16]
30000b1c:	e3530009 	cmp	r3, #9	; 0x9
30000b20:	dafffff9 	ble	30000b0c <nand_addr+0x4c>
30000b24:	e3a0244e 	mov	r2, #1308622848	; 0x4e000000
30000b28:	e282200c 	add	r2, r2, #12	; 0xc
30000b2c:	e51b300c 	ldr	r3, [fp, #-12]
30000b30:	e1a03423 	lsr	r3, r3, #8
30000b34:	e20330ff 	and	r3, r3, #255	; 0xff
30000b38:	e5c23000 	strb	r3, [r2]
30000b3c:	e3a03000 	mov	r3, #0	; 0x0
30000b40:	e50b3010 	str	r3, [fp, #-16]
30000b44:	ea000002 	b	30000b54 <nand_addr+0x94>
30000b48:	e51b3010 	ldr	r3, [fp, #-16]
30000b4c:	e2833001 	add	r3, r3, #1	; 0x1
30000b50:	e50b3010 	str	r3, [fp, #-16]
30000b54:	e51b3010 	ldr	r3, [fp, #-16]
30000b58:	e3530009 	cmp	r3, #9	; 0x9
30000b5c:	dafffff9 	ble	30000b48 <nand_addr+0x88>
30000b60:	e3a0244e 	mov	r2, #1308622848	; 0x4e000000
30000b64:	e282200c 	add	r2, r2, #12	; 0xc
30000b68:	e51b3008 	ldr	r3, [fp, #-8]
30000b6c:	e20330ff 	and	r3, r3, #255	; 0xff
30000b70:	e5c23000 	strb	r3, [r2]
30000b74:	e3a03000 	mov	r3, #0	; 0x0
30000b78:	e50b3010 	str	r3, [fp, #-16]
30000b7c:	ea000002 	b	30000b8c <nand_addr+0xcc>
30000b80:	e51b3010 	ldr	r3, [fp, #-16]
30000b84:	e2833001 	add	r3, r3, #1	; 0x1
30000b88:	e50b3010 	str	r3, [fp, #-16]
30000b8c:	e51b3010 	ldr	r3, [fp, #-16]
30000b90:	e3530009 	cmp	r3, #9	; 0x9
30000b94:	dafffff9 	ble	30000b80 <nand_addr+0xc0>
30000b98:	e3a0244e 	mov	r2, #1308622848	; 0x4e000000
30000b9c:	e282200c 	add	r2, r2, #12	; 0xc
30000ba0:	e51b3008 	ldr	r3, [fp, #-8]
30000ba4:	e1a03423 	lsr	r3, r3, #8
30000ba8:	e20330ff 	and	r3, r3, #255	; 0xff
30000bac:	e5c23000 	strb	r3, [r2]
30000bb0:	e3a03000 	mov	r3, #0	; 0x0
30000bb4:	e50b3010 	str	r3, [fp, #-16]
30000bb8:	ea000002 	b	30000bc8 <nand_addr+0x108>
30000bbc:	e51b3010 	ldr	r3, [fp, #-16]
30000bc0:	e2833001 	add	r3, r3, #1	; 0x1
30000bc4:	e50b3010 	str	r3, [fp, #-16]
30000bc8:	e51b3010 	ldr	r3, [fp, #-16]
30000bcc:	e3530009 	cmp	r3, #9	; 0x9
30000bd0:	dafffff9 	ble	30000bbc <nand_addr+0xfc>
30000bd4:	e3a0244e 	mov	r2, #1308622848	; 0x4e000000
30000bd8:	e282200c 	add	r2, r2, #12	; 0xc
30000bdc:	e51b3008 	ldr	r3, [fp, #-8]
30000be0:	e1a03823 	lsr	r3, r3, #16
30000be4:	e20330ff 	and	r3, r3, #255	; 0xff
30000be8:	e5c23000 	strb	r3, [r2]
30000bec:	e3a03000 	mov	r3, #0	; 0x0
30000bf0:	e50b3010 	str	r3, [fp, #-16]
30000bf4:	ea000002 	b	30000c04 <nand_addr+0x144>
30000bf8:	e51b3010 	ldr	r3, [fp, #-16]
30000bfc:	e2833001 	add	r3, r3, #1	; 0x1
30000c00:	e50b3010 	str	r3, [fp, #-16]
30000c04:	e51b3010 	ldr	r3, [fp, #-16]
30000c08:	e3530009 	cmp	r3, #9	; 0x9
30000c0c:	dafffff9 	ble	30000bf8 <nand_addr+0x138>
30000c10:	e28bd000 	add	sp, fp, #0	; 0x0
30000c14:	e8bd0800 	pop	{fp}
30000c18:	e12fff1e 	bx	lr

30000c1c <nand_page>:
30000c1c:	e52db004 	push	{fp}		; (str fp, [sp, #-4]!)
30000c20:	e28db000 	add	fp, sp, #0	; 0x0
30000c24:	e24dd014 	sub	sp, sp, #20	; 0x14
30000c28:	e50b0010 	str	r0, [fp, #-16]
30000c2c:	e3a0244e 	mov	r2, #1308622848	; 0x4e000000
30000c30:	e282200c 	add	r2, r2, #12	; 0xc
30000c34:	e51b3010 	ldr	r3, [fp, #-16]
30000c38:	e20330ff 	and	r3, r3, #255	; 0xff
30000c3c:	e5c23000 	strb	r3, [r2]
30000c40:	e3a03000 	mov	r3, #0	; 0x0
30000c44:	e50b3008 	str	r3, [fp, #-8]
30000c48:	ea000002 	b	30000c58 <nand_page+0x3c>
30000c4c:	e51b3008 	ldr	r3, [fp, #-8]
30000c50:	e2833001 	add	r3, r3, #1	; 0x1
30000c54:	e50b3008 	str	r3, [fp, #-8]
30000c58:	e51b3008 	ldr	r3, [fp, #-8]
30000c5c:	e3530009 	cmp	r3, #9	; 0x9
30000c60:	dafffff9 	ble	30000c4c <nand_page+0x30>
30000c64:	e3a0244e 	mov	r2, #1308622848	; 0x4e000000
30000c68:	e282200c 	add	r2, r2, #12	; 0xc
30000c6c:	e51b3010 	ldr	r3, [fp, #-16]
30000c70:	e1a03423 	lsr	r3, r3, #8
30000c74:	e20330ff 	and	r3, r3, #255	; 0xff
30000c78:	e5c23000 	strb	r3, [r2]
30000c7c:	e3a03000 	mov	r3, #0	; 0x0
30000c80:	e50b3008 	str	r3, [fp, #-8]
30000c84:	ea000002 	b	30000c94 <nand_page+0x78>
30000c88:	e51b3008 	ldr	r3, [fp, #-8]
30000c8c:	e2833001 	add	r3, r3, #1	; 0x1
30000c90:	e50b3008 	str	r3, [fp, #-8]
30000c94:	e51b3008 	ldr	r3, [fp, #-8]
30000c98:	e3530009 	cmp	r3, #9	; 0x9
30000c9c:	dafffff9 	ble	30000c88 <nand_page+0x6c>
30000ca0:	e3a0244e 	mov	r2, #1308622848	; 0x4e000000
30000ca4:	e282200c 	add	r2, r2, #12	; 0xc
30000ca8:	e51b3010 	ldr	r3, [fp, #-16]
30000cac:	e1a03823 	lsr	r3, r3, #16
30000cb0:	e20330ff 	and	r3, r3, #255	; 0xff
30000cb4:	e5c23000 	strb	r3, [r2]
30000cb8:	e3a03000 	mov	r3, #0	; 0x0
30000cbc:	e50b3008 	str	r3, [fp, #-8]
30000cc0:	ea000002 	b	30000cd0 <nand_page+0xb4>
30000cc4:	e51b3008 	ldr	r3, [fp, #-8]
30000cc8:	e2833001 	add	r3, r3, #1	; 0x1
30000ccc:	e50b3008 	str	r3, [fp, #-8]
30000cd0:	e51b3008 	ldr	r3, [fp, #-8]
30000cd4:	e3530009 	cmp	r3, #9	; 0x9
30000cd8:	dafffff9 	ble	30000cc4 <nand_page+0xa8>
30000cdc:	e28bd000 	add	sp, fp, #0	; 0x0
30000ce0:	e8bd0800 	pop	{fp}
30000ce4:	e12fff1e 	bx	lr

30000ce8 <nand_col>:
30000ce8:	e52db004 	push	{fp}		; (str fp, [sp, #-4]!)
30000cec:	e28db000 	add	fp, sp, #0	; 0x0
30000cf0:	e24dd014 	sub	sp, sp, #20	; 0x14
30000cf4:	e50b0010 	str	r0, [fp, #-16]
30000cf8:	e3a0244e 	mov	r2, #1308622848	; 0x4e000000
30000cfc:	e282200c 	add	r2, r2, #12	; 0xc
30000d00:	e51b3010 	ldr	r3, [fp, #-16]
30000d04:	e20330ff 	and	r3, r3, #255	; 0xff
30000d08:	e5c23000 	strb	r3, [r2]
30000d0c:	e3a03000 	mov	r3, #0	; 0x0
30000d10:	e50b3008 	str	r3, [fp, #-8]
30000d14:	ea000002 	b	30000d24 <nand_col+0x3c>
30000d18:	e51b3008 	ldr	r3, [fp, #-8]
30000d1c:	e2833001 	add	r3, r3, #1	; 0x1
30000d20:	e50b3008 	str	r3, [fp, #-8]
30000d24:	e51b3008 	ldr	r3, [fp, #-8]
30000d28:	e3530009 	cmp	r3, #9	; 0x9
30000d2c:	dafffff9 	ble	30000d18 <nand_col+0x30>
30000d30:	e3a0244e 	mov	r2, #1308622848	; 0x4e000000
30000d34:	e282200c 	add	r2, r2, #12	; 0xc
30000d38:	e51b3010 	ldr	r3, [fp, #-16]
30000d3c:	e1a03423 	lsr	r3, r3, #8
30000d40:	e20330ff 	and	r3, r3, #255	; 0xff
30000d44:	e5c23000 	strb	r3, [r2]
30000d48:	e3a03000 	mov	r3, #0	; 0x0
30000d4c:	e50b3008 	str	r3, [fp, #-8]
30000d50:	ea000002 	b	30000d60 <nand_col+0x78>
30000d54:	e51b3008 	ldr	r3, [fp, #-8]
30000d58:	e2833001 	add	r3, r3, #1	; 0x1
30000d5c:	e50b3008 	str	r3, [fp, #-8]
30000d60:	e51b3008 	ldr	r3, [fp, #-8]
30000d64:	e3530009 	cmp	r3, #9	; 0x9
30000d68:	dafffff9 	ble	30000d54 <nand_col+0x6c>
30000d6c:	e28bd000 	add	sp, fp, #0	; 0x0
30000d70:	e8bd0800 	pop	{fp}
30000d74:	e12fff1e 	bx	lr

30000d78 <nand_wait_ready>:
30000d78:	e52db004 	push	{fp}		; (str fp, [sp, #-4]!)
30000d7c:	e28db000 	add	fp, sp, #0	; 0x0
30000d80:	e3a0344e 	mov	r3, #1308622848	; 0x4e000000
30000d84:	e2833020 	add	r3, r3, #32	; 0x20
30000d88:	e5d33000 	ldrb	r3, [r3]
30000d8c:	e20330ff 	and	r3, r3, #255	; 0xff
30000d90:	e2033001 	and	r3, r3, #1	; 0x1
30000d94:	e3530000 	cmp	r3, #0	; 0x0
30000d98:	0afffff8 	beq	30000d80 <nand_wait_ready+0x8>
30000d9c:	e28bd000 	add	sp, fp, #0	; 0x0
30000da0:	e8bd0800 	pop	{fp}
30000da4:	e12fff1e 	bx	lr

30000da8 <nand_data>:
30000da8:	e52db004 	push	{fp}		; (str fp, [sp, #-4]!)
30000dac:	e28db000 	add	fp, sp, #0	; 0x0
30000db0:	e3a0344e 	mov	r3, #1308622848	; 0x4e000000
30000db4:	e2833010 	add	r3, r3, #16	; 0x10
30000db8:	e5d33000 	ldrb	r3, [r3]
30000dbc:	e20330ff 	and	r3, r3, #255	; 0xff
30000dc0:	e1a00003 	mov	r0, r3
30000dc4:	e28bd000 	add	sp, fp, #0	; 0x0
30000dc8:	e8bd0800 	pop	{fp}
30000dcc:	e12fff1e 	bx	lr

30000dd0 <nand_bad>:
30000dd0:	e92d4800 	push	{fp, lr}
30000dd4:	e28db004 	add	fp, sp, #4	; 0x4
30000dd8:	e24dd018 	sub	sp, sp, #24	; 0x18
30000ddc:	e50b0018 	str	r0, [fp, #-24]
30000de0:	e3a03b02 	mov	r3, #2048	; 0x800
30000de4:	e50b3010 	str	r3, [fp, #-16]
30000de8:	e51b3018 	ldr	r3, [fp, #-24]
30000dec:	e1a035a3 	lsr	r3, r3, #11
30000df0:	e50b300c 	str	r3, [fp, #-12]
30000df4:	ebffff04 	bl	30000a0c <nand_select>
30000df8:	e3a00000 	mov	r0, #0	; 0x0
30000dfc:	ebffff1a 	bl	30000a6c <nand_cmd>
30000e00:	e51b0010 	ldr	r0, [fp, #-16]
30000e04:	ebffffb7 	bl	30000ce8 <nand_col>
30000e08:	e51b000c 	ldr	r0, [fp, #-12]
30000e0c:	ebffff82 	bl	30000c1c <nand_page>
30000e10:	e3a00030 	mov	r0, #48	; 0x30
30000e14:	ebffff14 	bl	30000a6c <nand_cmd>
30000e18:	ebffffd6 	bl	30000d78 <nand_wait_ready>
30000e1c:	ebffffe1 	bl	30000da8 <nand_data>
30000e20:	e1a03000 	mov	r3, r0
30000e24:	e54b3005 	strb	r3, [fp, #-5]
30000e28:	ebffff03 	bl	30000a3c <nand_deselect>
30000e2c:	e55b3005 	ldrb	r3, [fp, #-5]
30000e30:	e35300ff 	cmp	r3, #255	; 0xff
30000e34:	0a000002 	beq	30000e44 <nand_bad+0x74>
30000e38:	e3a03001 	mov	r3, #1	; 0x1
30000e3c:	e50b301c 	str	r3, [fp, #-28]
30000e40:	ea000001 	b	30000e4c <nand_bad+0x7c>
30000e44:	e3a03000 	mov	r3, #0	; 0x0
30000e48:	e50b301c 	str	r3, [fp, #-28]
30000e4c:	e51b301c 	ldr	r3, [fp, #-28]
30000e50:	e1a00003 	mov	r0, r3
30000e54:	e24bd004 	sub	sp, fp, #4	; 0x4
30000e58:	e8bd4800 	pop	{fp, lr}
30000e5c:	e12fff1e 	bx	lr

30000e60 <nand_read>:
30000e60:	e92d4810 	push	{r4, fp, lr}
30000e64:	e28db008 	add	fp, sp, #8	; 0x8
30000e68:	e24dd01c 	sub	sp, sp, #28	; 0x1c
30000e6c:	e50b0018 	str	r0, [fp, #-24]
30000e70:	e50b101c 	str	r1, [fp, #-28]
30000e74:	e50b2020 	str	r2, [fp, #-32]
30000e78:	e51b3018 	ldr	r3, [fp, #-24]
30000e7c:	e1a03a83 	lsl	r3, r3, #21
30000e80:	e1a03aa3 	lsr	r3, r3, #21
30000e84:	e50b3014 	str	r3, [fp, #-20]
30000e88:	e3a03000 	mov	r3, #0	; 0x0
30000e8c:	e50b3010 	str	r3, [fp, #-16]
30000e90:	ea000031 	b	30000f5c <nand_read+0xfc>
30000e94:	e51b3018 	ldr	r3, [fp, #-24]
30000e98:	e3c334ff 	bic	r3, r3, #-16777216	; 0xff000000
30000e9c:	e3c338fe 	bic	r3, r3, #16646144	; 0xfe0000
30000ea0:	e3530000 	cmp	r3, #0	; 0x0
30000ea4:	1a000008 	bne	30000ecc <nand_read+0x6c>
30000ea8:	e51b0018 	ldr	r0, [fp, #-24]
30000eac:	ebffffc7 	bl	30000dd0 <nand_bad>
30000eb0:	e1a03000 	mov	r3, r0
30000eb4:	e3530000 	cmp	r3, #0	; 0x0
30000eb8:	0a000003 	beq	30000ecc <nand_read+0x6c>
30000ebc:	e51b3018 	ldr	r3, [fp, #-24]
30000ec0:	e2833802 	add	r3, r3, #131072	; 0x20000
30000ec4:	e50b3018 	str	r3, [fp, #-24]
30000ec8:	ea000023 	b	30000f5c <nand_read+0xfc>
30000ecc:	ebfffece 	bl	30000a0c <nand_select>
30000ed0:	e3a00000 	mov	r0, #0	; 0x0
30000ed4:	ebfffee4 	bl	30000a6c <nand_cmd>
30000ed8:	e51b0018 	ldr	r0, [fp, #-24]
30000edc:	ebfffef7 	bl	30000ac0 <nand_addr>
30000ee0:	e3a00030 	mov	r0, #48	; 0x30
30000ee4:	ebfffee0 	bl	30000a6c <nand_cmd>
30000ee8:	ebffffa2 	bl	30000d78 <nand_wait_ready>
30000eec:	ea00000e 	b	30000f2c <nand_read+0xcc>
30000ef0:	e51b2010 	ldr	r2, [fp, #-16]
30000ef4:	e51b301c 	ldr	r3, [fp, #-28]
30000ef8:	e0834002 	add	r4, r3, r2
30000efc:	ebffffa9 	bl	30000da8 <nand_data>
30000f00:	e1a03000 	mov	r3, r0
30000f04:	e5c43000 	strb	r3, [r4]
30000f08:	e51b3010 	ldr	r3, [fp, #-16]
30000f0c:	e2833001 	add	r3, r3, #1	; 0x1
30000f10:	e50b3010 	str	r3, [fp, #-16]
30000f14:	e51b3018 	ldr	r3, [fp, #-24]
30000f18:	e2833001 	add	r3, r3, #1	; 0x1
30000f1c:	e50b3018 	str	r3, [fp, #-24]
30000f20:	e51b3014 	ldr	r3, [fp, #-20]
30000f24:	e2833001 	add	r3, r3, #1	; 0x1
30000f28:	e50b3014 	str	r3, [fp, #-20]
30000f2c:	e51b2014 	ldr	r2, [fp, #-20]
30000f30:	e3a03e7f 	mov	r3, #2032	; 0x7f0
30000f34:	e283300f 	add	r3, r3, #15	; 0xf
30000f38:	e1520003 	cmp	r2, r3
30000f3c:	ca000003 	bgt	30000f50 <nand_read+0xf0>
30000f40:	e51b2010 	ldr	r2, [fp, #-16]
30000f44:	e51b3020 	ldr	r3, [fp, #-32]
30000f48:	e1520003 	cmp	r2, r3
30000f4c:	3affffe7 	bcc	30000ef0 <nand_read+0x90>
30000f50:	e3a03000 	mov	r3, #0	; 0x0
30000f54:	e50b3014 	str	r3, [fp, #-20]
30000f58:	ebfffeb7 	bl	30000a3c <nand_deselect>
30000f5c:	e51b2010 	ldr	r2, [fp, #-16]
30000f60:	e51b3020 	ldr	r3, [fp, #-32]
30000f64:	e1520003 	cmp	r2, r3
30000f68:	3affffc9 	bcc	30000e94 <nand_read+0x34>
30000f6c:	e24bd008 	sub	sp, fp, #8	; 0x8
30000f70:	e8bd4810 	pop	{r4, fp, lr}
30000f74:	e12fff1e 	bx	lr

30000f78 <main>:
30000f78:	e92d4800 	push	{fp, lr}
30000f7c:	e28db004 	add	fp, sp, #4	; 0x4
30000f80:	ebfffc96 	bl	300001e0 <led_init>
30000f84:	eb0000ed 	bl	30001340 <key_eint_init>
30000f88:	e59f0030 	ldr	r0, [pc, #48]	; 30000fc0 <main+0x48>
30000f8c:	ebfffd24 	bl	30000424 <puts>
30000f90:	e59f302c 	ldr	r3, [pc, #44]	; 30000fc4 <main+0x4c>
30000f94:	e5933000 	ldr	r3, [r3]
30000f98:	e1a00003 	mov	r0, r3
30000f9c:	ebfffd35 	bl	30000478 <printHex>
30000fa0:	e59f0020 	ldr	r0, [pc, #32]	; 30000fc8 <main+0x50>
30000fa4:	ebfffd1e 	bl	30000424 <puts>
30000fa8:	eb000b88 	bl	30003dd0 <lcd_test>
30000fac:	e3a03000 	mov	r3, #0	; 0x0
30000fb0:	e1a00003 	mov	r0, r3
30000fb4:	e24bd004 	sub	sp, fp, #4	; 0x4
30000fb8:	e8bd4800 	pop	{fp, lr}
30000fbc:	e12fff1e 	bx	lr
30000fc0:	3000564c 	.word	0x3000564c
30000fc4:	30006afc 	.word	0x30006afc
30000fc8:	30005658 	.word	0x30005658

30000fcc <raise>:
30000fcc:	e52db004 	push	{fp}		; (str fp, [sp, #-4]!)
30000fd0:	e28db000 	add	fp, sp, #0	; 0x0
30000fd4:	e24dd00c 	sub	sp, sp, #12	; 0xc
30000fd8:	e50b0008 	str	r0, [fp, #-8]
30000fdc:	e3a03000 	mov	r3, #0	; 0x0
30000fe0:	e1a00003 	mov	r0, r3
30000fe4:	e28bd000 	add	sp, fp, #0	; 0x0
30000fe8:	e8bd0800 	pop	{fp}
30000fec:	e12fff1e 	bx	lr

30000ff0 <printException>:
30000ff0:	e92d4800 	push	{fp, lr}
30000ff4:	e28db004 	add	fp, sp, #4	; 0x4
30000ff8:	e24dd008 	sub	sp, sp, #8	; 0x8
30000ffc:	e50b0008 	str	r0, [fp, #-8]
30001000:	e50b100c 	str	r1, [fp, #-12]
30001004:	e59f002c 	ldr	r0, [pc, #44]	; 30001038 <printException+0x48>
30001008:	ebfffd05 	bl	30000424 <puts>
3000100c:	e51b0008 	ldr	r0, [fp, #-8]
30001010:	ebfffd18 	bl	30000478 <printHex>
30001014:	e59f0020 	ldr	r0, [pc, #32]	; 3000103c <printException+0x4c>
30001018:	ebfffd01 	bl	30000424 <puts>
3000101c:	e51b000c 	ldr	r0, [fp, #-12]
30001020:	ebfffcff 	bl	30000424 <puts>
30001024:	e59f0014 	ldr	r0, [pc, #20]	; 30001040 <printException+0x50>
30001028:	ebfffcfd 	bl	30000424 <puts>
3000102c:	e24bd004 	sub	sp, fp, #4	; 0x4
30001030:	e8bd4800 	pop	{fp, lr}
30001034:	e12fff1e 	bx	lr
30001038:	3000565c 	.word	0x3000565c
3000103c:	30005670 	.word	0x30005670
30001040:	30005674 	.word	0x30005674

30001044 <interrupt_init>:
30001044:	e52db004 	push	{fp}		; (str fp, [sp, #-4]!)
30001048:	e28db000 	add	fp, sp, #0	; 0x0
3000104c:	e3a0244a 	mov	r2, #1241513984	; 0x4a000000
30001050:	e2822008 	add	r2, r2, #8	; 0x8
30001054:	e3a0344a 	mov	r3, #1241513984	; 0x4a000000
30001058:	e2833008 	add	r3, r3, #8	; 0x8
3000105c:	e5933000 	ldr	r3, [r3]
30001060:	e3c33025 	bic	r3, r3, #37	; 0x25
30001064:	e5823000 	str	r3, [r2]
30001068:	e3a0244a 	mov	r2, #1241513984	; 0x4a000000
3000106c:	e2822008 	add	r2, r2, #8	; 0x8
30001070:	e3a0344a 	mov	r3, #1241513984	; 0x4a000000
30001074:	e2833008 	add	r3, r3, #8	; 0x8
30001078:	e5933000 	ldr	r3, [r3]
3000107c:	e3c33b01 	bic	r3, r3, #1024	; 0x400
30001080:	e5823000 	str	r3, [r2]
30001084:	e28bd000 	add	sp, fp, #0	; 0x0
30001088:	e8bd0800 	pop	{fp}
3000108c:	e12fff1e 	bx	lr

30001090 <key_eint_irq>:
30001090:	e52db004 	push	{fp}		; (str fp, [sp, #-4]!)
30001094:	e28db000 	add	fp, sp, #0	; 0x0
30001098:	e24dd01c 	sub	sp, sp, #28	; 0x1c
3000109c:	e50b0018 	str	r0, [fp, #-24]
300010a0:	e3a03456 	mov	r3, #1442840576	; 0x56000000
300010a4:	e28330a8 	add	r3, r3, #168	; 0xa8
300010a8:	e5933000 	ldr	r3, [r3]
300010ac:	e50b3010 	str	r3, [fp, #-16]
300010b0:	e3a03456 	mov	r3, #1442840576	; 0x56000000
300010b4:	e2833054 	add	r3, r3, #84	; 0x54
300010b8:	e5933000 	ldr	r3, [r3]
300010bc:	e50b300c 	str	r3, [fp, #-12]
300010c0:	e3a03456 	mov	r3, #1442840576	; 0x56000000
300010c4:	e2833064 	add	r3, r3, #100	; 0x64
300010c8:	e5933000 	ldr	r3, [r3]
300010cc:	e50b3008 	str	r3, [fp, #-8]
300010d0:	e51b3018 	ldr	r3, [fp, #-24]
300010d4:	e3530000 	cmp	r3, #0	; 0x0
300010d8:	1a000014 	bne	30001130 <key_eint_irq+0xa0>
300010dc:	e51b300c 	ldr	r3, [fp, #-12]
300010e0:	e2033001 	and	r3, r3, #1	; 0x1
300010e4:	e20330ff 	and	r3, r3, #255	; 0xff
300010e8:	e3530000 	cmp	r3, #0	; 0x0
300010ec:	0a000007 	beq	30001110 <key_eint_irq+0x80>
300010f0:	e3a02456 	mov	r2, #1442840576	; 0x56000000
300010f4:	e2822054 	add	r2, r2, #84	; 0x54
300010f8:	e3a03456 	mov	r3, #1442840576	; 0x56000000
300010fc:	e2833054 	add	r3, r3, #84	; 0x54
30001100:	e5933000 	ldr	r3, [r3]
30001104:	e3833040 	orr	r3, r3, #64	; 0x40
30001108:	e5823000 	str	r3, [r2]
3000110c:	ea000050 	b	30001254 <key_eint_irq+0x1c4>
30001110:	e3a02456 	mov	r2, #1442840576	; 0x56000000
30001114:	e2822054 	add	r2, r2, #84	; 0x54
30001118:	e3a03456 	mov	r3, #1442840576	; 0x56000000
3000111c:	e2833054 	add	r3, r3, #84	; 0x54
30001120:	e5933000 	ldr	r3, [r3]
30001124:	e3c33040 	bic	r3, r3, #64	; 0x40
30001128:	e5823000 	str	r3, [r2]
3000112c:	ea000048 	b	30001254 <key_eint_irq+0x1c4>
30001130:	e51b3018 	ldr	r3, [fp, #-24]
30001134:	e3530002 	cmp	r3, #2	; 0x2
30001138:	1a000013 	bne	3000118c <key_eint_irq+0xfc>
3000113c:	e51b300c 	ldr	r3, [fp, #-12]
30001140:	e2033004 	and	r3, r3, #4	; 0x4
30001144:	e3530000 	cmp	r3, #0	; 0x0
30001148:	0a000007 	beq	3000116c <key_eint_irq+0xdc>
3000114c:	e3a02456 	mov	r2, #1442840576	; 0x56000000
30001150:	e2822054 	add	r2, r2, #84	; 0x54
30001154:	e3a03456 	mov	r3, #1442840576	; 0x56000000
30001158:	e2833054 	add	r3, r3, #84	; 0x54
3000115c:	e5933000 	ldr	r3, [r3]
30001160:	e3833020 	orr	r3, r3, #32	; 0x20
30001164:	e5823000 	str	r3, [r2]
30001168:	ea000039 	b	30001254 <key_eint_irq+0x1c4>
3000116c:	e3a02456 	mov	r2, #1442840576	; 0x56000000
30001170:	e2822054 	add	r2, r2, #84	; 0x54
30001174:	e3a03456 	mov	r3, #1442840576	; 0x56000000
30001178:	e2833054 	add	r3, r3, #84	; 0x54
3000117c:	e5933000 	ldr	r3, [r3]
30001180:	e3c33020 	bic	r3, r3, #32	; 0x20
30001184:	e5823000 	str	r3, [r2]
30001188:	ea000031 	b	30001254 <key_eint_irq+0x1c4>
3000118c:	e51b3018 	ldr	r3, [fp, #-24]
30001190:	e3530005 	cmp	r3, #5	; 0x5
30001194:	1a00002e 	bne	30001254 <key_eint_irq+0x1c4>
30001198:	e51b3010 	ldr	r3, [fp, #-16]
3000119c:	e2033b02 	and	r3, r3, #2048	; 0x800
300011a0:	e3530000 	cmp	r3, #0	; 0x0
300011a4:	0a000013 	beq	300011f8 <key_eint_irq+0x168>
300011a8:	e51b3008 	ldr	r3, [fp, #-8]
300011ac:	e2033008 	and	r3, r3, #8	; 0x8
300011b0:	e3530000 	cmp	r3, #0	; 0x0
300011b4:	0a000007 	beq	300011d8 <key_eint_irq+0x148>
300011b8:	e3a02456 	mov	r2, #1442840576	; 0x56000000
300011bc:	e2822054 	add	r2, r2, #84	; 0x54
300011c0:	e3a03456 	mov	r3, #1442840576	; 0x56000000
300011c4:	e2833054 	add	r3, r3, #84	; 0x54
300011c8:	e5933000 	ldr	r3, [r3]
300011cc:	e3833010 	orr	r3, r3, #16	; 0x10
300011d0:	e5823000 	str	r3, [r2]
300011d4:	ea00001e 	b	30001254 <key_eint_irq+0x1c4>
300011d8:	e3a02456 	mov	r2, #1442840576	; 0x56000000
300011dc:	e2822054 	add	r2, r2, #84	; 0x54
300011e0:	e3a03456 	mov	r3, #1442840576	; 0x56000000
300011e4:	e2833054 	add	r3, r3, #84	; 0x54
300011e8:	e5933000 	ldr	r3, [r3]
300011ec:	e3c33010 	bic	r3, r3, #16	; 0x10
300011f0:	e5823000 	str	r3, [r2]
300011f4:	ea000016 	b	30001254 <key_eint_irq+0x1c4>
300011f8:	e51b3010 	ldr	r3, [fp, #-16]
300011fc:	e2033702 	and	r3, r3, #524288	; 0x80000
30001200:	e3530000 	cmp	r3, #0	; 0x0
30001204:	0a000012 	beq	30001254 <key_eint_irq+0x1c4>
30001208:	e51b3008 	ldr	r3, [fp, #-8]
3000120c:	e2033b02 	and	r3, r3, #2048	; 0x800
30001210:	e3530000 	cmp	r3, #0	; 0x0
30001214:	0a000007 	beq	30001238 <key_eint_irq+0x1a8>
30001218:	e3a02456 	mov	r2, #1442840576	; 0x56000000
3000121c:	e2822054 	add	r2, r2, #84	; 0x54
30001220:	e3a03456 	mov	r3, #1442840576	; 0x56000000
30001224:	e2833054 	add	r3, r3, #84	; 0x54
30001228:	e5933000 	ldr	r3, [r3]
3000122c:	e3833070 	orr	r3, r3, #112	; 0x70
30001230:	e5823000 	str	r3, [r2]
30001234:	ea000006 	b	30001254 <key_eint_irq+0x1c4>
30001238:	e3a02456 	mov	r2, #1442840576	; 0x56000000
3000123c:	e2822054 	add	r2, r2, #84	; 0x54
30001240:	e3a03456 	mov	r3, #1442840576	; 0x56000000
30001244:	e2833054 	add	r3, r3, #84	; 0x54
30001248:	e5933000 	ldr	r3, [r3]
3000124c:	e3c33070 	bic	r3, r3, #112	; 0x70
30001250:	e5823000 	str	r3, [r2]
30001254:	e3a03456 	mov	r3, #1442840576	; 0x56000000
30001258:	e28330a8 	add	r3, r3, #168	; 0xa8
3000125c:	e51b2010 	ldr	r2, [fp, #-16]
30001260:	e5832000 	str	r2, [r3]
30001264:	e28bd000 	add	sp, fp, #0	; 0x0
30001268:	e8bd0800 	pop	{fp}
3000126c:	e12fff1e 	bx	lr

30001270 <handle_irq_c>:
30001270:	e92d4800 	push	{fp, lr}
30001274:	e28db004 	add	fp, sp, #4	; 0x4
30001278:	e24dd008 	sub	sp, sp, #8	; 0x8
3000127c:	e3a0344a 	mov	r3, #1241513984	; 0x4a000000
30001280:	e2833014 	add	r3, r3, #20	; 0x14
30001284:	e5933000 	ldr	r3, [r3]
30001288:	e50b3008 	str	r3, [fp, #-8]
3000128c:	e51b2008 	ldr	r2, [fp, #-8]
30001290:	e59f3044 	ldr	r3, [pc, #68]	; 300012dc <handle_irq_c+0x6c>
30001294:	e7933102 	ldr	r3, [r3, r2, lsl #2]
30001298:	e51b0008 	ldr	r0, [fp, #-8]
3000129c:	e1a0e00f 	mov	lr, pc
300012a0:	e12fff13 	bx	r3
300012a4:	e3a0144a 	mov	r1, #1241513984	; 0x4a000000
300012a8:	e3a02001 	mov	r2, #1	; 0x1
300012ac:	e51b3008 	ldr	r3, [fp, #-8]
300012b0:	e1a03312 	lsl	r3, r2, r3
300012b4:	e5813000 	str	r3, [r1]
300012b8:	e3a0244a 	mov	r2, #1241513984	; 0x4a000000
300012bc:	e2822010 	add	r2, r2, #16	; 0x10
300012c0:	e3a01001 	mov	r1, #1	; 0x1
300012c4:	e51b3008 	ldr	r3, [fp, #-8]
300012c8:	e1a03311 	lsl	r3, r1, r3
300012cc:	e5823000 	str	r3, [r2]
300012d0:	e24bd004 	sub	sp, fp, #4	; 0x4
300012d4:	e8bd4800 	pop	{fp, lr}
300012d8:	e12fff1e 	bx	lr
300012dc:	30006b80 	.word	0x30006b80

300012e0 <register_irq>:
300012e0:	e52db004 	push	{fp}		; (str fp, [sp, #-4]!)
300012e4:	e28db000 	add	fp, sp, #0	; 0x0
300012e8:	e24dd00c 	sub	sp, sp, #12	; 0xc
300012ec:	e50b0008 	str	r0, [fp, #-8]
300012f0:	e50b100c 	str	r1, [fp, #-12]
300012f4:	e51b1008 	ldr	r1, [fp, #-8]
300012f8:	e59f203c 	ldr	r2, [pc, #60]	; 3000133c <register_irq+0x5c>
300012fc:	e51b300c 	ldr	r3, [fp, #-12]
30001300:	e7823101 	str	r3, [r2, r1, lsl #2]
30001304:	e3a0144a 	mov	r1, #1241513984	; 0x4a000000
30001308:	e2811008 	add	r1, r1, #8	; 0x8
3000130c:	e3a0344a 	mov	r3, #1241513984	; 0x4a000000
30001310:	e2833008 	add	r3, r3, #8	; 0x8
30001314:	e5930000 	ldr	r0, [r3]
30001318:	e3a02001 	mov	r2, #1	; 0x1
3000131c:	e51b3008 	ldr	r3, [fp, #-8]
30001320:	e1a03312 	lsl	r3, r2, r3
30001324:	e1e03003 	mvn	r3, r3
30001328:	e0003003 	and	r3, r0, r3
3000132c:	e5813000 	str	r3, [r1]
30001330:	e28bd000 	add	sp, fp, #0	; 0x0
30001334:	e8bd0800 	pop	{fp}
30001338:	e12fff1e 	bx	lr
3000133c:	30006b80 	.word	0x30006b80

30001340 <key_eint_init>:
30001340:	e92d4800 	push	{fp, lr}
30001344:	e28db004 	add	fp, sp, #4	; 0x4
30001348:	e3a02456 	mov	r2, #1442840576	; 0x56000000
3000134c:	e2822050 	add	r2, r2, #80	; 0x50
30001350:	e3a03456 	mov	r3, #1442840576	; 0x56000000
30001354:	e2833050 	add	r3, r3, #80	; 0x50
30001358:	e5933000 	ldr	r3, [r3]
3000135c:	e3c33033 	bic	r3, r3, #51	; 0x33
30001360:	e5823000 	str	r3, [r2]
30001364:	e3a02456 	mov	r2, #1442840576	; 0x56000000
30001368:	e2822050 	add	r2, r2, #80	; 0x50
3000136c:	e3a03456 	mov	r3, #1442840576	; 0x56000000
30001370:	e2833050 	add	r3, r3, #80	; 0x50
30001374:	e5933000 	ldr	r3, [r3]
30001378:	e3833022 	orr	r3, r3, #34	; 0x22
3000137c:	e5823000 	str	r3, [r2]
30001380:	e3a02456 	mov	r2, #1442840576	; 0x56000000
30001384:	e2822060 	add	r2, r2, #96	; 0x60
30001388:	e3a03456 	mov	r3, #1442840576	; 0x56000000
3000138c:	e2833060 	add	r3, r3, #96	; 0x60
30001390:	e5933000 	ldr	r3, [r3]
30001394:	e3c33503 	bic	r3, r3, #12582912	; 0xc00000
30001398:	e3c330c0 	bic	r3, r3, #192	; 0xc0
3000139c:	e5823000 	str	r3, [r2]
300013a0:	e3a02456 	mov	r2, #1442840576	; 0x56000000
300013a4:	e2822060 	add	r2, r2, #96	; 0x60
300013a8:	e3a03456 	mov	r3, #1442840576	; 0x56000000
300013ac:	e2833060 	add	r3, r3, #96	; 0x60
300013b0:	e5933000 	ldr	r3, [r3]
300013b4:	e3833502 	orr	r3, r3, #8388608	; 0x800000
300013b8:	e3833080 	orr	r3, r3, #128	; 0x80
300013bc:	e5823000 	str	r3, [r2]
300013c0:	e3a02456 	mov	r2, #1442840576	; 0x56000000
300013c4:	e2822088 	add	r2, r2, #136	; 0x88
300013c8:	e3a03456 	mov	r3, #1442840576	; 0x56000000
300013cc:	e2833088 	add	r3, r3, #136	; 0x88
300013d0:	e5933000 	ldr	r3, [r3]
300013d4:	e3833c07 	orr	r3, r3, #1792	; 0x700
300013d8:	e3833007 	orr	r3, r3, #7	; 0x7
300013dc:	e5823000 	str	r3, [r2]
300013e0:	e3a02456 	mov	r2, #1442840576	; 0x56000000
300013e4:	e282208c 	add	r2, r2, #140	; 0x8c
300013e8:	e3a03456 	mov	r3, #1442840576	; 0x56000000
300013ec:	e283308c 	add	r3, r3, #140	; 0x8c
300013f0:	e5933000 	ldr	r3, [r3]
300013f4:	e3833a07 	orr	r3, r3, #28672	; 0x7000
300013f8:	e5823000 	str	r3, [r2]
300013fc:	e3a02456 	mov	r2, #1442840576	; 0x56000000
30001400:	e2822090 	add	r2, r2, #144	; 0x90
30001404:	e3a03456 	mov	r3, #1442840576	; 0x56000000
30001408:	e2833090 	add	r3, r3, #144	; 0x90
3000140c:	e5933000 	ldr	r3, [r3]
30001410:	e3833a07 	orr	r3, r3, #28672	; 0x7000
30001414:	e5823000 	str	r3, [r2]
30001418:	e3a02456 	mov	r2, #1442840576	; 0x56000000
3000141c:	e28220a4 	add	r2, r2, #164	; 0xa4
30001420:	e3a03456 	mov	r3, #1442840576	; 0x56000000
30001424:	e28330a4 	add	r3, r3, #164	; 0xa4
30001428:	e5933000 	ldr	r3, [r3]
3000142c:	e3c33702 	bic	r3, r3, #524288	; 0x80000
30001430:	e3c33b02 	bic	r3, r3, #2048	; 0x800
30001434:	e5823000 	str	r3, [r2]
30001438:	e3a00000 	mov	r0, #0	; 0x0
3000143c:	e59f1024 	ldr	r1, [pc, #36]	; 30001468 <key_eint_init+0x128>
30001440:	ebffffa6 	bl	300012e0 <register_irq>
30001444:	e3a00002 	mov	r0, #2	; 0x2
30001448:	e59f1018 	ldr	r1, [pc, #24]	; 30001468 <key_eint_init+0x128>
3000144c:	ebffffa3 	bl	300012e0 <register_irq>
30001450:	e3a00005 	mov	r0, #5	; 0x5
30001454:	e59f100c 	ldr	r1, [pc, #12]	; 30001468 <key_eint_init+0x128>
30001458:	ebffffa0 	bl	300012e0 <register_irq>
3000145c:	e24bd004 	sub	sp, fp, #4	; 0x4
30001460:	e8bd4800 	pop	{fp, lr}
30001464:	e12fff1e 	bx	lr
30001468:	30001090 	.word	0x30001090

3000146c <timer_irq>:
3000146c:	e52db004 	push	{fp}		; (str fp, [sp, #-4]!)
30001470:	e28db000 	add	fp, sp, #0	; 0x0
30001474:	e24dd00c 	sub	sp, sp, #12	; 0xc
30001478:	e59f3074 	ldr	r3, [pc, #116]	; 300014f4 <timer_irq+0x88>
3000147c:	e5933000 	ldr	r3, [r3]
30001480:	e2832001 	add	r2, r3, #1	; 0x1
30001484:	e59f3068 	ldr	r3, [pc, #104]	; 300014f4 <timer_irq+0x88>
30001488:	e5832000 	str	r2, [r3]
3000148c:	e59f3060 	ldr	r3, [pc, #96]	; 300014f4 <timer_irq+0x88>
30001490:	e5933000 	ldr	r3, [r3]
30001494:	e1e03003 	mvn	r3, r3
30001498:	e50b3008 	str	r3, [fp, #-8]
3000149c:	e51b3008 	ldr	r3, [fp, #-8]
300014a0:	e2033007 	and	r3, r3, #7	; 0x7
300014a4:	e50b3008 	str	r3, [fp, #-8]
300014a8:	e3a02456 	mov	r2, #1442840576	; 0x56000000
300014ac:	e2822054 	add	r2, r2, #84	; 0x54
300014b0:	e3a03456 	mov	r3, #1442840576	; 0x56000000
300014b4:	e2833054 	add	r3, r3, #84	; 0x54
300014b8:	e5933000 	ldr	r3, [r3]
300014bc:	e3c33070 	bic	r3, r3, #112	; 0x70
300014c0:	e5823000 	str	r3, [r2]
300014c4:	e3a02456 	mov	r2, #1442840576	; 0x56000000
300014c8:	e2822054 	add	r2, r2, #84	; 0x54
300014cc:	e3a03456 	mov	r3, #1442840576	; 0x56000000
300014d0:	e2833054 	add	r3, r3, #84	; 0x54
300014d4:	e5931000 	ldr	r1, [r3]
300014d8:	e51b3008 	ldr	r3, [fp, #-8]
300014dc:	e1a03203 	lsl	r3, r3, #4
300014e0:	e1813003 	orr	r3, r1, r3
300014e4:	e5823000 	str	r3, [r2]
300014e8:	e28bd000 	add	sp, fp, #0	; 0x0
300014ec:	e8bd0800 	pop	{fp}
300014f0:	e12fff1e 	bx	lr
300014f4:	30006b00 	.word	0x30006b00

300014f8 <timer_init>:
300014f8:	e92d4800 	push	{fp, lr}
300014fc:	e28db004 	add	fp, sp, #4	; 0x4
30001500:	e3a02451 	mov	r2, #1358954496	; 0x51000000
30001504:	e3a03063 	mov	r3, #99	; 0x63
30001508:	e5823000 	str	r3, [r2]
3000150c:	e3a02451 	mov	r2, #1358954496	; 0x51000000
30001510:	e2822004 	add	r2, r2, #4	; 0x4
30001514:	e3a03451 	mov	r3, #1358954496	; 0x51000000
30001518:	e2833004 	add	r3, r3, #4	; 0x4
3000151c:	e5933000 	ldr	r3, [r3]
30001520:	e3c3300f 	bic	r3, r3, #15	; 0xf
30001524:	e5823000 	str	r3, [r2]
30001528:	e3a02451 	mov	r2, #1358954496	; 0x51000000
3000152c:	e2822004 	add	r2, r2, #4	; 0x4
30001530:	e3a03451 	mov	r3, #1358954496	; 0x51000000
30001534:	e2833004 	add	r3, r3, #4	; 0x4
30001538:	e5933000 	ldr	r3, [r3]
3000153c:	e3833003 	orr	r3, r3, #3	; 0x3
30001540:	e5823000 	str	r3, [r2]
30001544:	e3a02451 	mov	r2, #1358954496	; 0x51000000
30001548:	e282200c 	add	r2, r2, #12	; 0xc
3000154c:	e3a03c3d 	mov	r3, #15616	; 0x3d00
30001550:	e2833009 	add	r3, r3, #9	; 0x9
30001554:	e5823000 	str	r3, [r2]
30001558:	e3a02451 	mov	r2, #1358954496	; 0x51000000
3000155c:	e2822008 	add	r2, r2, #8	; 0x8
30001560:	e3a03451 	mov	r3, #1358954496	; 0x51000000
30001564:	e2833008 	add	r3, r3, #8	; 0x8
30001568:	e5933000 	ldr	r3, [r3]
3000156c:	e3833002 	orr	r3, r3, #2	; 0x2
30001570:	e5823000 	str	r3, [r2]
30001574:	e3a02451 	mov	r2, #1358954496	; 0x51000000
30001578:	e2822008 	add	r2, r2, #8	; 0x8
3000157c:	e3a03451 	mov	r3, #1358954496	; 0x51000000
30001580:	e2833008 	add	r3, r3, #8	; 0x8
30001584:	e5933000 	ldr	r3, [r3]
30001588:	e3c33002 	bic	r3, r3, #2	; 0x2
3000158c:	e5823000 	str	r3, [r2]
30001590:	e3a02451 	mov	r2, #1358954496	; 0x51000000
30001594:	e2822008 	add	r2, r2, #8	; 0x8
30001598:	e3a03451 	mov	r3, #1358954496	; 0x51000000
3000159c:	e2833008 	add	r3, r3, #8	; 0x8
300015a0:	e5933000 	ldr	r3, [r3]
300015a4:	e3833009 	orr	r3, r3, #9	; 0x9
300015a8:	e5823000 	str	r3, [r2]
300015ac:	e3a0000a 	mov	r0, #10	; 0xa
300015b0:	e59f100c 	ldr	r1, [pc, #12]	; 300015c4 <timer_init+0xcc>
300015b4:	ebffff49 	bl	300012e0 <register_irq>
300015b8:	e24bd004 	sub	sp, fp, #4	; 0x4
300015bc:	e8bd4800 	pop	{fp, lr}
300015c0:	e12fff1e 	bx	lr
300015c4:	3000146c 	.word	0x3000146c

300015c8 <nor_write_word>:
300015c8:	e52db004 	push	{fp}		; (str fp, [sp, #-4]!)
300015cc:	e28db000 	add	fp, sp, #0	; 0x0
300015d0:	e24dd01c 	sub	sp, sp, #28	; 0x1c
300015d4:	e50b0010 	str	r0, [fp, #-16]
300015d8:	e50b1014 	str	r1, [fp, #-20]
300015dc:	e50b2018 	str	r2, [fp, #-24]
300015e0:	e51b3014 	ldr	r3, [fp, #-20]
300015e4:	e1a02083 	lsl	r2, r3, #1
300015e8:	e51b3010 	ldr	r3, [fp, #-16]
300015ec:	e0823003 	add	r3, r2, r3
300015f0:	e50b3008 	str	r3, [fp, #-8]
300015f4:	e51b3018 	ldr	r3, [fp, #-24]
300015f8:	e1a03803 	lsl	r3, r3, #16
300015fc:	e1a02823 	lsr	r2, r3, #16
30001600:	e51b3008 	ldr	r3, [fp, #-8]
30001604:	e1c320b0 	strh	r2, [r3]
30001608:	e28bd000 	add	sp, fp, #0	; 0x0
3000160c:	e8bd0800 	pop	{fp}
30001610:	e12fff1e 	bx	lr

30001614 <nor_cmd>:
30001614:	e92d4800 	push	{fp, lr}
30001618:	e28db004 	add	fp, sp, #4	; 0x4
3000161c:	e24dd008 	sub	sp, sp, #8	; 0x8
30001620:	e50b0008 	str	r0, [fp, #-8]
30001624:	e50b100c 	str	r1, [fp, #-12]
30001628:	e3a00000 	mov	r0, #0	; 0x0
3000162c:	e51b1008 	ldr	r1, [fp, #-8]
30001630:	e51b200c 	ldr	r2, [fp, #-12]
30001634:	ebffffe3 	bl	300015c8 <nor_write_word>
30001638:	e24bd004 	sub	sp, fp, #4	; 0x4
3000163c:	e8bd4800 	pop	{fp, lr}
30001640:	e12fff1e 	bx	lr

30001644 <nor_read_word>:
30001644:	e52db004 	push	{fp}		; (str fp, [sp, #-4]!)
30001648:	e28db000 	add	fp, sp, #0	; 0x0
3000164c:	e24dd014 	sub	sp, sp, #20	; 0x14
30001650:	e50b0010 	str	r0, [fp, #-16]
30001654:	e50b1014 	str	r1, [fp, #-20]
30001658:	e51b3014 	ldr	r3, [fp, #-20]
3000165c:	e1a02083 	lsl	r2, r3, #1
30001660:	e51b3010 	ldr	r3, [fp, #-16]
30001664:	e0823003 	add	r3, r2, r3
30001668:	e50b3008 	str	r3, [fp, #-8]
3000166c:	e51b3008 	ldr	r3, [fp, #-8]
30001670:	e1d330b0 	ldrh	r3, [r3]
30001674:	e1a03803 	lsl	r3, r3, #16
30001678:	e1a03823 	lsr	r3, r3, #16
3000167c:	e1a00003 	mov	r0, r3
30001680:	e28bd000 	add	sp, fp, #0	; 0x0
30001684:	e8bd0800 	pop	{fp}
30001688:	e12fff1e 	bx	lr

3000168c <nor_dat>:
3000168c:	e92d4800 	push	{fp, lr}
30001690:	e28db004 	add	fp, sp, #4	; 0x4
30001694:	e24dd008 	sub	sp, sp, #8	; 0x8
30001698:	e50b0008 	str	r0, [fp, #-8]
3000169c:	e3a00000 	mov	r0, #0	; 0x0
300016a0:	e51b1008 	ldr	r1, [fp, #-8]
300016a4:	ebffffe6 	bl	30001644 <nor_read_word>
300016a8:	e1a03000 	mov	r3, r0
300016ac:	e1a00003 	mov	r0, r3
300016b0:	e24bd004 	sub	sp, fp, #4	; 0x4
300016b4:	e8bd4800 	pop	{fp, lr}
300016b8:	e12fff1e 	bx	lr

300016bc <wait_ready>:
300016bc:	e92d4800 	push	{fp, lr}
300016c0:	e28db004 	add	fp, sp, #4	; 0x4
300016c4:	e24dd010 	sub	sp, sp, #16	; 0x10
300016c8:	e50b0010 	str	r0, [fp, #-16]
300016cc:	e51b3010 	ldr	r3, [fp, #-16]
300016d0:	e1a030a3 	lsr	r3, r3, #1
300016d4:	e1a00003 	mov	r0, r3
300016d8:	ebffffeb 	bl	3000168c <nor_dat>
300016dc:	e1a03000 	mov	r3, r0
300016e0:	e50b3008 	str	r3, [fp, #-8]
300016e4:	e51b3010 	ldr	r3, [fp, #-16]
300016e8:	e1a030a3 	lsr	r3, r3, #1
300016ec:	e1a00003 	mov	r0, r3
300016f0:	ebffffe5 	bl	3000168c <nor_dat>
300016f4:	e1a03000 	mov	r3, r0
300016f8:	e50b300c 	str	r3, [fp, #-12]
300016fc:	ea000007 	b	30001720 <wait_ready+0x64>
30001700:	e51b300c 	ldr	r3, [fp, #-12]
30001704:	e50b3008 	str	r3, [fp, #-8]
30001708:	e51b3010 	ldr	r3, [fp, #-16]
3000170c:	e1a030a3 	lsr	r3, r3, #1
30001710:	e1a00003 	mov	r0, r3
30001714:	ebffffdc 	bl	3000168c <nor_dat>
30001718:	e1a03000 	mov	r3, r0
3000171c:	e50b300c 	str	r3, [fp, #-12]
30001720:	e51b200c 	ldr	r2, [fp, #-12]
30001724:	e51b3008 	ldr	r3, [fp, #-8]
30001728:	e0223003 	eor	r3, r2, r3
3000172c:	e2033040 	and	r3, r3, #64	; 0x40
30001730:	e3530000 	cmp	r3, #0	; 0x0
30001734:	1afffff1 	bne	30001700 <wait_ready+0x44>
30001738:	e24bd004 	sub	sp, fp, #4	; 0x4
3000173c:	e8bd4800 	pop	{fp, lr}
30001740:	e12fff1e 	bx	lr

30001744 <do_scan_nor_flash>:
30001744:	e92d4810 	push	{r4, fp, lr}
30001748:	e28db008 	add	fp, sp, #8	; 0x8
3000174c:	e24dd044 	sub	sp, sp, #68	; 0x44
30001750:	e3a00e55 	mov	r0, #1360	; 0x550
30001754:	e2800005 	add	r0, r0, #5	; 0x5
30001758:	e3a010aa 	mov	r1, #170	; 0xaa
3000175c:	ebffffac 	bl	30001614 <nor_cmd>
30001760:	e3a00faa 	mov	r0, #680	; 0x2a8
30001764:	e2800002 	add	r0, r0, #2	; 0x2
30001768:	e3a01055 	mov	r1, #85	; 0x55
3000176c:	ebffffa8 	bl	30001614 <nor_cmd>
30001770:	e3a00e55 	mov	r0, #1360	; 0x550
30001774:	e2800005 	add	r0, r0, #5	; 0x5
30001778:	e3a01090 	mov	r1, #144	; 0x90
3000177c:	ebffffa4 	bl	30001614 <nor_cmd>
30001780:	e3a00000 	mov	r0, #0	; 0x0
30001784:	ebffffc0 	bl	3000168c <nor_dat>
30001788:	e1a03000 	mov	r3, r0
3000178c:	e50b3014 	str	r3, [fp, #-20]
30001790:	e3a00001 	mov	r0, #1	; 0x1
30001794:	ebffffbc 	bl	3000168c <nor_dat>
30001798:	e1a03000 	mov	r3, r0
3000179c:	e50b3010 	str	r3, [fp, #-16]
300017a0:	e3a00000 	mov	r0, #0	; 0x0
300017a4:	e3a010f0 	mov	r1, #240	; 0xf0
300017a8:	ebffff99 	bl	30001614 <nor_cmd>
300017ac:	e3a00055 	mov	r0, #85	; 0x55
300017b0:	e3a01098 	mov	r1, #152	; 0x98
300017b4:	ebffff96 	bl	30001614 <nor_cmd>
300017b8:	e3a00010 	mov	r0, #16	; 0x10
300017bc:	ebffffb2 	bl	3000168c <nor_dat>
300017c0:	e1a03000 	mov	r3, r0
300017c4:	e20330ff 	and	r3, r3, #255	; 0xff
300017c8:	e54b303c 	strb	r3, [fp, #-60]
300017cc:	e3a00011 	mov	r0, #17	; 0x11
300017d0:	ebffffad 	bl	3000168c <nor_dat>
300017d4:	e1a03000 	mov	r3, r0
300017d8:	e20330ff 	and	r3, r3, #255	; 0xff
300017dc:	e54b303b 	strb	r3, [fp, #-59]
300017e0:	e3a00012 	mov	r0, #18	; 0x12
300017e4:	ebffffa8 	bl	3000168c <nor_dat>
300017e8:	e1a03000 	mov	r3, r0
300017ec:	e20330ff 	and	r3, r3, #255	; 0xff
300017f0:	e54b303a 	strb	r3, [fp, #-58]
300017f4:	e3a03000 	mov	r3, #0	; 0x0
300017f8:	e54b3039 	strb	r3, [fp, #-57]
300017fc:	e24b303c 	sub	r3, fp, #60	; 0x3c
30001800:	e59f01d0 	ldr	r0, [pc, #464]	; 300019d8 <do_scan_nor_flash+0x294>
30001804:	e1a01003 	mov	r1, r3
30001808:	eb0002f9 	bl	300023f4 <printf>
3000180c:	e3a00027 	mov	r0, #39	; 0x27
30001810:	ebffff9d 	bl	3000168c <nor_dat>
30001814:	e1a03000 	mov	r3, r0
30001818:	e1a02003 	mov	r2, r3
3000181c:	e3a03001 	mov	r3, #1	; 0x1
30001820:	e1a03213 	lsl	r3, r3, r2
30001824:	e50b3038 	str	r3, [fp, #-56]
30001828:	e51b3038 	ldr	r3, [fp, #-56]
3000182c:	e1a03a23 	lsr	r3, r3, #20
30001830:	e58d3000 	str	r3, [sp]
30001834:	e59f01a0 	ldr	r0, [pc, #416]	; 300019dc <do_scan_nor_flash+0x298>
30001838:	e51b1014 	ldr	r1, [fp, #-20]
3000183c:	e51b2010 	ldr	r2, [fp, #-16]
30001840:	e51b3038 	ldr	r3, [fp, #-56]
30001844:	eb0002ea 	bl	300023f4 <printf>
30001848:	e3a0002c 	mov	r0, #44	; 0x2c
3000184c:	ebffff8e 	bl	3000168c <nor_dat>
30001850:	e1a03000 	mov	r3, r0
30001854:	e50b3034 	str	r3, [fp, #-52]
30001858:	e3a0302d 	mov	r3, #45	; 0x2d
3000185c:	e50b302c 	str	r3, [fp, #-44]
30001860:	e3a03000 	mov	r3, #0	; 0x0
30001864:	e50b3028 	str	r3, [fp, #-40]
30001868:	e59f0170 	ldr	r0, [pc, #368]	; 300019e0 <do_scan_nor_flash+0x29c>
3000186c:	eb0002e0 	bl	300023f4 <printf>
30001870:	e3a03000 	mov	r3, #0	; 0x0
30001874:	e50b3018 	str	r3, [fp, #-24]
30001878:	e3a03000 	mov	r3, #0	; 0x0
3000187c:	e50b3030 	str	r3, [fp, #-48]
30001880:	ea000048 	b	300019a8 <do_scan_nor_flash+0x264>
30001884:	e51b302c 	ldr	r3, [fp, #-44]
30001888:	e1a00003 	mov	r0, r3
3000188c:	ebffff7e 	bl	3000168c <nor_dat>
30001890:	e1a04000 	mov	r4, r0
30001894:	e51b302c 	ldr	r3, [fp, #-44]
30001898:	e2833001 	add	r3, r3, #1	; 0x1
3000189c:	e1a00003 	mov	r0, r3
300018a0:	ebffff79 	bl	3000168c <nor_dat>
300018a4:	e1a03000 	mov	r3, r0
300018a8:	e1a03403 	lsl	r3, r3, #8
300018ac:	e0843003 	add	r3, r4, r3
300018b0:	e2833001 	add	r3, r3, #1	; 0x1
300018b4:	e50b3024 	str	r3, [fp, #-36]
300018b8:	e51b302c 	ldr	r3, [fp, #-44]
300018bc:	e2833002 	add	r3, r3, #2	; 0x2
300018c0:	e1a00003 	mov	r0, r3
300018c4:	ebffff70 	bl	3000168c <nor_dat>
300018c8:	e1a04000 	mov	r4, r0
300018cc:	e51b302c 	ldr	r3, [fp, #-44]
300018d0:	e2833003 	add	r3, r3, #3	; 0x3
300018d4:	e1a00003 	mov	r0, r3
300018d8:	ebffff6b 	bl	3000168c <nor_dat>
300018dc:	e1a03000 	mov	r3, r0
300018e0:	e1a03403 	lsl	r3, r3, #8
300018e4:	e0843003 	add	r3, r4, r3
300018e8:	e1a03403 	lsl	r3, r3, #8
300018ec:	e50b3020 	str	r3, [fp, #-32]
300018f0:	e51b302c 	ldr	r3, [fp, #-44]
300018f4:	e2833004 	add	r3, r3, #4	; 0x4
300018f8:	e50b302c 	str	r3, [fp, #-44]
300018fc:	e3a03000 	mov	r3, #0	; 0x0
30001900:	e50b301c 	str	r3, [fp, #-28]
30001904:	ea000020 	b	3000198c <do_scan_nor_flash+0x248>
30001908:	e51b3028 	ldr	r3, [fp, #-40]
3000190c:	e1a00003 	mov	r0, r3
30001910:	ebfffad8 	bl	30000478 <printHex>
30001914:	e3a00020 	mov	r0, #32	; 0x20
30001918:	ebfffa9d 	bl	30000394 <putchar>
3000191c:	e51b3018 	ldr	r3, [fp, #-24]
30001920:	e2833001 	add	r3, r3, #1	; 0x1
30001924:	e50b3018 	str	r3, [fp, #-24]
30001928:	e51b2028 	ldr	r2, [fp, #-40]
3000192c:	e51b3020 	ldr	r3, [fp, #-32]
30001930:	e0823003 	add	r3, r2, r3
30001934:	e50b3028 	str	r3, [fp, #-40]
30001938:	e51b1018 	ldr	r1, [fp, #-24]
3000193c:	e59f30a0 	ldr	r3, [pc, #160]	; 300019e4 <do_scan_nor_flash+0x2a0>
30001940:	e0c32391 	smull	r2, r3, r1, r3
30001944:	e1a020c3 	asr	r2, r3, #1
30001948:	e1a03fc1 	asr	r3, r1, #31
3000194c:	e0633002 	rsb	r3, r3, r2
30001950:	e50b3040 	str	r3, [fp, #-64]
30001954:	e51b3040 	ldr	r3, [fp, #-64]
30001958:	e1a03103 	lsl	r3, r3, #2
3000195c:	e51b2040 	ldr	r2, [fp, #-64]
30001960:	e0833002 	add	r3, r3, r2
30001964:	e0633001 	rsb	r3, r3, r1
30001968:	e50b3040 	str	r3, [fp, #-64]
3000196c:	e51b3040 	ldr	r3, [fp, #-64]
30001970:	e3530000 	cmp	r3, #0	; 0x0
30001974:	1a000001 	bne	30001980 <do_scan_nor_flash+0x23c>
30001978:	e59f0068 	ldr	r0, [pc, #104]	; 300019e8 <do_scan_nor_flash+0x2a4>
3000197c:	eb00029c 	bl	300023f4 <printf>
30001980:	e51b301c 	ldr	r3, [fp, #-28]
30001984:	e2833001 	add	r3, r3, #1	; 0x1
30001988:	e50b301c 	str	r3, [fp, #-28]
3000198c:	e51b201c 	ldr	r2, [fp, #-28]
30001990:	e51b3024 	ldr	r3, [fp, #-36]
30001994:	e1520003 	cmp	r2, r3
30001998:	baffffda 	blt	30001908 <do_scan_nor_flash+0x1c4>
3000199c:	e51b3030 	ldr	r3, [fp, #-48]
300019a0:	e2833001 	add	r3, r3, #1	; 0x1
300019a4:	e50b3030 	str	r3, [fp, #-48]
300019a8:	e51b2030 	ldr	r2, [fp, #-48]
300019ac:	e51b3034 	ldr	r3, [fp, #-52]
300019b0:	e1520003 	cmp	r2, r3
300019b4:	baffffb2 	blt	30001884 <do_scan_nor_flash+0x140>
300019b8:	e59f0028 	ldr	r0, [pc, #40]	; 300019e8 <do_scan_nor_flash+0x2a4>
300019bc:	eb00028c 	bl	300023f4 <printf>
300019c0:	e3a00000 	mov	r0, #0	; 0x0
300019c4:	e3a010f0 	mov	r1, #240	; 0xf0
300019c8:	ebffff11 	bl	30001614 <nor_cmd>
300019cc:	e24bd008 	sub	sp, fp, #8	; 0x8
300019d0:	e8bd4810 	pop	{r4, fp, lr}
300019d4:	e12fff1e 	bx	lr
300019d8:	30005678 	.word	0x30005678
300019dc:	30005684 	.word	0x30005684
300019e0:	300056c0 	.word	0x300056c0
300019e4:	66666667 	.word	0x66666667
300019e8:	300056e0 	.word	0x300056e0

300019ec <do_erase_nor_flash>:
300019ec:	e92d4800 	push	{fp, lr}
300019f0:	e28db004 	add	fp, sp, #4	; 0x4
300019f4:	e24dd008 	sub	sp, sp, #8	; 0x8
300019f8:	e59f008c 	ldr	r0, [pc, #140]	; 30001a8c <do_erase_nor_flash+0xa0>
300019fc:	eb00027c 	bl	300023f4 <printf>
30001a00:	eb0003bf 	bl	30002904 <get_uint>
30001a04:	e1a03000 	mov	r3, r0
30001a08:	e50b3008 	str	r3, [fp, #-8]
30001a0c:	e59f007c 	ldr	r0, [pc, #124]	; 30001a90 <do_erase_nor_flash+0xa4>
30001a10:	eb000277 	bl	300023f4 <printf>
30001a14:	e3a00e55 	mov	r0, #1360	; 0x550
30001a18:	e2800005 	add	r0, r0, #5	; 0x5
30001a1c:	e3a010aa 	mov	r1, #170	; 0xaa
30001a20:	ebfffefb 	bl	30001614 <nor_cmd>
30001a24:	e3a00faa 	mov	r0, #680	; 0x2a8
30001a28:	e2800002 	add	r0, r0, #2	; 0x2
30001a2c:	e3a01055 	mov	r1, #85	; 0x55
30001a30:	ebfffef7 	bl	30001614 <nor_cmd>
30001a34:	e3a00e55 	mov	r0, #1360	; 0x550
30001a38:	e2800005 	add	r0, r0, #5	; 0x5
30001a3c:	e3a01080 	mov	r1, #128	; 0x80
30001a40:	ebfffef3 	bl	30001614 <nor_cmd>
30001a44:	e3a00e55 	mov	r0, #1360	; 0x550
30001a48:	e2800005 	add	r0, r0, #5	; 0x5
30001a4c:	e3a010aa 	mov	r1, #170	; 0xaa
30001a50:	ebfffeef 	bl	30001614 <nor_cmd>
30001a54:	e3a00faa 	mov	r0, #680	; 0x2a8
30001a58:	e2800002 	add	r0, r0, #2	; 0x2
30001a5c:	e3a01055 	mov	r1, #85	; 0x55
30001a60:	ebfffeeb 	bl	30001614 <nor_cmd>
30001a64:	e51b3008 	ldr	r3, [fp, #-8]
30001a68:	e1a030a3 	lsr	r3, r3, #1
30001a6c:	e1a00003 	mov	r0, r3
30001a70:	e3a01030 	mov	r1, #48	; 0x30
30001a74:	ebfffee6 	bl	30001614 <nor_cmd>
30001a78:	e51b0008 	ldr	r0, [fp, #-8]
30001a7c:	ebffff0e 	bl	300016bc <wait_ready>
30001a80:	e24bd004 	sub	sp, fp, #4	; 0x4
30001a84:	e8bd4800 	pop	{fp, lr}
30001a88:	e12fff1e 	bx	lr
30001a8c:	300056e4 	.word	0x300056e4
30001a90:	3000570c 	.word	0x3000570c

30001a94 <do_write_nor_flash>:
30001a94:	e92d4800 	push	{fp, lr}
30001a98:	e28db004 	add	fp, sp, #4	; 0x4
30001a9c:	e24dd078 	sub	sp, sp, #120	; 0x78
30001aa0:	e59f01a0 	ldr	r0, [pc, #416]	; 30001c48 <do_write_nor_flash+0x1b4>
30001aa4:	eb000252 	bl	300023f4 <printf>
30001aa8:	eb000395 	bl	30002904 <get_uint>
30001aac:	e1a03000 	mov	r3, r0
30001ab0:	e50b3014 	str	r3, [fp, #-20]
30001ab4:	e59f0190 	ldr	r0, [pc, #400]	; 30001c4c <do_write_nor_flash+0x1b8>
30001ab8:	eb00024d 	bl	300023f4 <printf>
30001abc:	e24b3078 	sub	r3, fp, #120	; 0x78
30001ac0:	e1a00003 	mov	r0, r3
30001ac4:	eb00034e 	bl	30002804 <gets>
30001ac8:	e59f0180 	ldr	r0, [pc, #384]	; 30001c50 <do_write_nor_flash+0x1bc>
30001acc:	eb000248 	bl	300023f4 <printf>
30001ad0:	e3a03000 	mov	r3, #0	; 0x0
30001ad4:	e50b3010 	str	r3, [fp, #-16]
30001ad8:	e3a03001 	mov	r3, #1	; 0x1
30001adc:	e50b300c 	str	r3, [fp, #-12]
30001ae0:	ea00002b 	b	30001b94 <do_write_nor_flash+0x100>
30001ae4:	e51b3010 	ldr	r3, [fp, #-16]
30001ae8:	e3e02073 	mvn	r2, #115	; 0x73
30001aec:	e24b0004 	sub	r0, fp, #4	; 0x4
30001af0:	e0803003 	add	r3, r0, r3
30001af4:	e0833002 	add	r3, r3, r2
30001af8:	e5d33000 	ldrb	r3, [r3]
30001afc:	e1a01003 	mov	r1, r3
30001b00:	e51b300c 	ldr	r3, [fp, #-12]
30001b04:	e3e02073 	mvn	r2, #115	; 0x73
30001b08:	e24b0004 	sub	r0, fp, #4	; 0x4
30001b0c:	e0803003 	add	r3, r0, r3
30001b10:	e0833002 	add	r3, r3, r2
30001b14:	e5d33000 	ldrb	r3, [r3]
30001b18:	e1a03403 	lsl	r3, r3, #8
30001b1c:	e0813003 	add	r3, r1, r3
30001b20:	e50b3008 	str	r3, [fp, #-8]
30001b24:	e3a00e55 	mov	r0, #1360	; 0x550
30001b28:	e2800005 	add	r0, r0, #5	; 0x5
30001b2c:	e3a010aa 	mov	r1, #170	; 0xaa
30001b30:	ebfffeb7 	bl	30001614 <nor_cmd>
30001b34:	e3a00faa 	mov	r0, #680	; 0x2a8
30001b38:	e2800002 	add	r0, r0, #2	; 0x2
30001b3c:	e3a01055 	mov	r1, #85	; 0x55
30001b40:	ebfffeb3 	bl	30001614 <nor_cmd>
30001b44:	e3a00e55 	mov	r0, #1360	; 0x550
30001b48:	e2800005 	add	r0, r0, #5	; 0x5
30001b4c:	e3a010a0 	mov	r1, #160	; 0xa0
30001b50:	ebfffeaf 	bl	30001614 <nor_cmd>
30001b54:	e51b3014 	ldr	r3, [fp, #-20]
30001b58:	e1a030a3 	lsr	r3, r3, #1
30001b5c:	e1a00003 	mov	r0, r3
30001b60:	e51b1008 	ldr	r1, [fp, #-8]
30001b64:	ebfffeaa 	bl	30001614 <nor_cmd>
30001b68:	e51b0014 	ldr	r0, [fp, #-20]
30001b6c:	ebfffed2 	bl	300016bc <wait_ready>
30001b70:	e51b3010 	ldr	r3, [fp, #-16]
30001b74:	e2833002 	add	r3, r3, #2	; 0x2
30001b78:	e50b3010 	str	r3, [fp, #-16]
30001b7c:	e51b300c 	ldr	r3, [fp, #-12]
30001b80:	e2833002 	add	r3, r3, #2	; 0x2
30001b84:	e50b300c 	str	r3, [fp, #-12]
30001b88:	e51b3014 	ldr	r3, [fp, #-20]
30001b8c:	e2833002 	add	r3, r3, #2	; 0x2
30001b90:	e50b3014 	str	r3, [fp, #-20]
30001b94:	e51b3010 	ldr	r3, [fp, #-16]
30001b98:	e3e02073 	mvn	r2, #115	; 0x73
30001b9c:	e24b1004 	sub	r1, fp, #4	; 0x4
30001ba0:	e0813003 	add	r3, r1, r3
30001ba4:	e0833002 	add	r3, r3, r2
30001ba8:	e5d33000 	ldrb	r3, [r3]
30001bac:	e3530000 	cmp	r3, #0	; 0x0
30001bb0:	0a000007 	beq	30001bd4 <do_write_nor_flash+0x140>
30001bb4:	e51b300c 	ldr	r3, [fp, #-12]
30001bb8:	e3e02073 	mvn	r2, #115	; 0x73
30001bbc:	e24b0004 	sub	r0, fp, #4	; 0x4
30001bc0:	e0803003 	add	r3, r0, r3
30001bc4:	e0833002 	add	r3, r3, r2
30001bc8:	e5d33000 	ldrb	r3, [r3]
30001bcc:	e3530000 	cmp	r3, #0	; 0x0
30001bd0:	1affffc3 	bne	30001ae4 <do_write_nor_flash+0x50>
30001bd4:	e51b3010 	ldr	r3, [fp, #-16]
30001bd8:	e3e02073 	mvn	r2, #115	; 0x73
30001bdc:	e24b1004 	sub	r1, fp, #4	; 0x4
30001be0:	e0813003 	add	r3, r1, r3
30001be4:	e0833002 	add	r3, r3, r2
30001be8:	e5d33000 	ldrb	r3, [r3]
30001bec:	e50b3008 	str	r3, [fp, #-8]
30001bf0:	e3a00e55 	mov	r0, #1360	; 0x550
30001bf4:	e2800005 	add	r0, r0, #5	; 0x5
30001bf8:	e3a010aa 	mov	r1, #170	; 0xaa
30001bfc:	ebfffe84 	bl	30001614 <nor_cmd>
30001c00:	e3a00faa 	mov	r0, #680	; 0x2a8
30001c04:	e2800002 	add	r0, r0, #2	; 0x2
30001c08:	e3a01055 	mov	r1, #85	; 0x55
30001c0c:	ebfffe80 	bl	30001614 <nor_cmd>
30001c10:	e3a00e55 	mov	r0, #1360	; 0x550
30001c14:	e2800005 	add	r0, r0, #5	; 0x5
30001c18:	e3a010a0 	mov	r1, #160	; 0xa0
30001c1c:	ebfffe7c 	bl	30001614 <nor_cmd>
30001c20:	e51b3014 	ldr	r3, [fp, #-20]
30001c24:	e1a030a3 	lsr	r3, r3, #1
30001c28:	e1a00003 	mov	r0, r3
30001c2c:	e51b1008 	ldr	r1, [fp, #-8]
30001c30:	ebfffe77 	bl	30001614 <nor_cmd>
30001c34:	e51b0014 	ldr	r0, [fp, #-20]
30001c38:	ebfffe9f 	bl	300016bc <wait_ready>
30001c3c:	e24bd004 	sub	sp, fp, #4	; 0x4
30001c40:	e8bd4800 	pop	{fp, lr}
30001c44:	e12fff1e 	bx	lr
30001c48:	3000571c 	.word	0x3000571c
30001c4c:	30005744 	.word	0x30005744
30001c50:	30005760 	.word	0x30005760

30001c54 <do_read_nor_flash>:
30001c54:	e92d4800 	push	{fp, lr}
30001c58:	e28db004 	add	fp, sp, #4	; 0x4
30001c5c:	e24dd028 	sub	sp, sp, #40	; 0x28
30001c60:	e59f0154 	ldr	r0, [pc, #340]	; 30001dbc <do_read_nor_flash+0x168>
30001c64:	eb0001e2 	bl	300023f4 <printf>
30001c68:	eb000325 	bl	30002904 <get_uint>
30001c6c:	e1a03000 	mov	r3, r0
30001c70:	e50b3018 	str	r3, [fp, #-24]
30001c74:	e51b3018 	ldr	r3, [fp, #-24]
30001c78:	e50b3014 	str	r3, [fp, #-20]
30001c7c:	e59f013c 	ldr	r0, [pc, #316]	; 30001dc0 <do_read_nor_flash+0x16c>
30001c80:	eb0001db 	bl	300023f4 <printf>
30001c84:	e3a03000 	mov	r3, #0	; 0x0
30001c88:	e50b3010 	str	r3, [fp, #-16]
30001c8c:	ea000044 	b	30001da4 <do_read_nor_flash+0x150>
30001c90:	e3a03000 	mov	r3, #0	; 0x0
30001c94:	e50b300c 	str	r3, [fp, #-12]
30001c98:	ea000013 	b	30001cec <do_read_nor_flash+0x98>
30001c9c:	e51b3014 	ldr	r3, [fp, #-20]
30001ca0:	e5d33000 	ldrb	r3, [r3]
30001ca4:	e54b3005 	strb	r3, [fp, #-5]
30001ca8:	e51b3014 	ldr	r3, [fp, #-20]
30001cac:	e2833001 	add	r3, r3, #1	; 0x1
30001cb0:	e50b3014 	str	r3, [fp, #-20]
30001cb4:	e51b300c 	ldr	r3, [fp, #-12]
30001cb8:	e3e02023 	mvn	r2, #35	; 0x23
30001cbc:	e24b1004 	sub	r1, fp, #4	; 0x4
30001cc0:	e0813003 	add	r3, r1, r3
30001cc4:	e0832002 	add	r2, r3, r2
30001cc8:	e55b3005 	ldrb	r3, [fp, #-5]
30001ccc:	e5c23000 	strb	r3, [r2]
30001cd0:	e55b3005 	ldrb	r3, [fp, #-5]
30001cd4:	e59f00e8 	ldr	r0, [pc, #232]	; 30001dc4 <do_read_nor_flash+0x170>
30001cd8:	e1a01003 	mov	r1, r3
30001cdc:	eb0001c4 	bl	300023f4 <printf>
30001ce0:	e51b300c 	ldr	r3, [fp, #-12]
30001ce4:	e2833001 	add	r3, r3, #1	; 0x1
30001ce8:	e50b300c 	str	r3, [fp, #-12]
30001cec:	e51b300c 	ldr	r3, [fp, #-12]
30001cf0:	e353000f 	cmp	r3, #15	; 0xf
30001cf4:	daffffe8 	ble	30001c9c <do_read_nor_flash+0x48>
30001cf8:	e59f00c8 	ldr	r0, [pc, #200]	; 30001dc8 <do_read_nor_flash+0x174>
30001cfc:	eb0001bc 	bl	300023f4 <printf>
30001d00:	e3a03000 	mov	r3, #0	; 0x0
30001d04:	e50b300c 	str	r3, [fp, #-12]
30001d08:	ea00001d 	b	30001d84 <do_read_nor_flash+0x130>
30001d0c:	e51b300c 	ldr	r3, [fp, #-12]
30001d10:	e3e02023 	mvn	r2, #35	; 0x23
30001d14:	e24b1004 	sub	r1, fp, #4	; 0x4
30001d18:	e0813003 	add	r3, r1, r3
30001d1c:	e0833002 	add	r3, r3, r2
30001d20:	e5d33000 	ldrb	r3, [r3]
30001d24:	e353001f 	cmp	r3, #31	; 0x1f
30001d28:	9a000007 	bls	30001d4c <do_read_nor_flash+0xf8>
30001d2c:	e51b300c 	ldr	r3, [fp, #-12]
30001d30:	e3e02023 	mvn	r2, #35	; 0x23
30001d34:	e24b1004 	sub	r1, fp, #4	; 0x4
30001d38:	e0813003 	add	r3, r1, r3
30001d3c:	e0833002 	add	r3, r3, r2
30001d40:	e5d33000 	ldrb	r3, [r3]
30001d44:	e353007e 	cmp	r3, #126	; 0x7e
30001d48:	9a000002 	bls	30001d58 <do_read_nor_flash+0x104>
30001d4c:	e3a0002e 	mov	r0, #46	; 0x2e
30001d50:	ebfff98f 	bl	30000394 <putchar>
30001d54:	ea000007 	b	30001d78 <do_read_nor_flash+0x124>
30001d58:	e51b300c 	ldr	r3, [fp, #-12]
30001d5c:	e3e02023 	mvn	r2, #35	; 0x23
30001d60:	e24b1004 	sub	r1, fp, #4	; 0x4
30001d64:	e0813003 	add	r3, r1, r3
30001d68:	e0833002 	add	r3, r3, r2
30001d6c:	e5d33000 	ldrb	r3, [r3]
30001d70:	e1a00003 	mov	r0, r3
30001d74:	ebfff986 	bl	30000394 <putchar>
30001d78:	e51b300c 	ldr	r3, [fp, #-12]
30001d7c:	e2833001 	add	r3, r3, #1	; 0x1
30001d80:	e50b300c 	str	r3, [fp, #-12]
30001d84:	e51b300c 	ldr	r3, [fp, #-12]
30001d88:	e353000f 	cmp	r3, #15	; 0xf
30001d8c:	daffffde 	ble	30001d0c <do_read_nor_flash+0xb8>
30001d90:	e59f0034 	ldr	r0, [pc, #52]	; 30001dcc <do_read_nor_flash+0x178>
30001d94:	eb000196 	bl	300023f4 <printf>
30001d98:	e51b3010 	ldr	r3, [fp, #-16]
30001d9c:	e2833001 	add	r3, r3, #1	; 0x1
30001da0:	e50b3010 	str	r3, [fp, #-16]
30001da4:	e51b3010 	ldr	r3, [fp, #-16]
30001da8:	e3530003 	cmp	r3, #3	; 0x3
30001dac:	daffffb7 	ble	30001c90 <do_read_nor_flash+0x3c>
30001db0:	e24bd004 	sub	sp, fp, #4	; 0x4
30001db4:	e8bd4800 	pop	{fp, lr}
30001db8:	e12fff1e 	bx	lr
30001dbc:	30005770 	.word	0x30005770
30001dc0:	3000578c 	.word	0x3000578c
30001dc4:	30005798 	.word	0x30005798
30001dc8:	300057a0 	.word	0x300057a0
30001dcc:	300056e0 	.word	0x300056e0

30001dd0 <nor_flash_test>:
30001dd0:	e92d4800 	push	{fp, lr}
30001dd4:	e28db004 	add	fp, sp, #4	; 0x4
30001dd8:	e24dd008 	sub	sp, sp, #8	; 0x8
30001ddc:	e59f0150 	ldr	r0, [pc, #336]	; 30001f34 <nor_flash_test+0x164>
30001de0:	eb000183 	bl	300023f4 <printf>
30001de4:	e59f014c 	ldr	r0, [pc, #332]	; 30001f38 <nor_flash_test+0x168>
30001de8:	eb000181 	bl	300023f4 <printf>
30001dec:	e59f0148 	ldr	r0, [pc, #328]	; 30001f3c <nor_flash_test+0x16c>
30001df0:	eb00017f 	bl	300023f4 <printf>
30001df4:	e59f0144 	ldr	r0, [pc, #324]	; 30001f40 <nor_flash_test+0x170>
30001df8:	eb00017d 	bl	300023f4 <printf>
30001dfc:	e59f0140 	ldr	r0, [pc, #320]	; 30001f44 <nor_flash_test+0x174>
30001e00:	eb00017b 	bl	300023f4 <printf>
30001e04:	e59f013c 	ldr	r0, [pc, #316]	; 30001f48 <nor_flash_test+0x178>
30001e08:	eb000179 	bl	300023f4 <printf>
30001e0c:	ebfff974 	bl	300003e4 <getchar>
30001e10:	e1a03000 	mov	r3, r0
30001e14:	e54b3005 	strb	r3, [fp, #-5]
30001e18:	e55b3005 	ldrb	r3, [fp, #-5]
30001e1c:	e59f0128 	ldr	r0, [pc, #296]	; 30001f4c <nor_flash_test+0x17c>
30001e20:	e1a01003 	mov	r1, r3
30001e24:	eb000172 	bl	300023f4 <printf>
30001e28:	e55b3005 	ldrb	r3, [fp, #-5]
30001e2c:	e2433045 	sub	r3, r3, #69	; 0x45
30001e30:	e3530032 	cmp	r3, #50	; 0x32
30001e34:	979ff103 	ldrls	pc, [pc, r3, lsl #2]
30001e38:	eaffffe7 	b	30001ddc <nor_flash_test+0xc>
30001e3c:	30001f10 	.word	0x30001f10
30001e40:	30001ddc 	.word	0x30001ddc
30001e44:	30001ddc 	.word	0x30001ddc
30001e48:	30001ddc 	.word	0x30001ddc
30001e4c:	30001ddc 	.word	0x30001ddc
30001e50:	30001ddc 	.word	0x30001ddc
30001e54:	30001ddc 	.word	0x30001ddc
30001e58:	30001ddc 	.word	0x30001ddc
30001e5c:	30001ddc 	.word	0x30001ddc
30001e60:	30001ddc 	.word	0x30001ddc
30001e64:	30001ddc 	.word	0x30001ddc
30001e68:	30001ddc 	.word	0x30001ddc
30001e6c:	30001f28 	.word	0x30001f28
30001e70:	30001f20 	.word	0x30001f20
30001e74:	30001f08 	.word	0x30001f08
30001e78:	30001ddc 	.word	0x30001ddc
30001e7c:	30001ddc 	.word	0x30001ddc
30001e80:	30001ddc 	.word	0x30001ddc
30001e84:	30001f18 	.word	0x30001f18
30001e88:	30001ddc 	.word	0x30001ddc
30001e8c:	30001ddc 	.word	0x30001ddc
30001e90:	30001ddc 	.word	0x30001ddc
30001e94:	30001ddc 	.word	0x30001ddc
30001e98:	30001ddc 	.word	0x30001ddc
30001e9c:	30001ddc 	.word	0x30001ddc
30001ea0:	30001ddc 	.word	0x30001ddc
30001ea4:	30001ddc 	.word	0x30001ddc
30001ea8:	30001ddc 	.word	0x30001ddc
30001eac:	30001ddc 	.word	0x30001ddc
30001eb0:	30001ddc 	.word	0x30001ddc
30001eb4:	30001ddc 	.word	0x30001ddc
30001eb8:	30001ddc 	.word	0x30001ddc
30001ebc:	30001f10 	.word	0x30001f10
30001ec0:	30001ddc 	.word	0x30001ddc
30001ec4:	30001ddc 	.word	0x30001ddc
30001ec8:	30001ddc 	.word	0x30001ddc
30001ecc:	30001ddc 	.word	0x30001ddc
30001ed0:	30001ddc 	.word	0x30001ddc
30001ed4:	30001ddc 	.word	0x30001ddc
30001ed8:	30001ddc 	.word	0x30001ddc
30001edc:	30001ddc 	.word	0x30001ddc
30001ee0:	30001ddc 	.word	0x30001ddc
30001ee4:	30001ddc 	.word	0x30001ddc
30001ee8:	30001ddc 	.word	0x30001ddc
30001eec:	30001f28 	.word	0x30001f28
30001ef0:	30001f20 	.word	0x30001f20
30001ef4:	30001f08 	.word	0x30001f08
30001ef8:	30001ddc 	.word	0x30001ddc
30001efc:	30001ddc 	.word	0x30001ddc
30001f00:	30001ddc 	.word	0x30001ddc
30001f04:	30001f18 	.word	0x30001f18
30001f08:	ebfffe0d 	bl	30001744 <do_scan_nor_flash>
30001f0c:	eaffffb2 	b	30001ddc <nor_flash_test+0xc>
30001f10:	ebfffeb5 	bl	300019ec <do_erase_nor_flash>
30001f14:	eaffffb0 	b	30001ddc <nor_flash_test+0xc>
30001f18:	ebfffedd 	bl	30001a94 <do_write_nor_flash>
30001f1c:	eaffffae 	b	30001ddc <nor_flash_test+0xc>
30001f20:	ebffff4b 	bl	30001c54 <do_read_nor_flash>
30001f24:	eaffffac 	b	30001ddc <nor_flash_test+0xc>
30001f28:	e24bd004 	sub	sp, fp, #4	; 0x4
30001f2c:	e8bd4800 	pop	{fp, lr}
30001f30:	e12fff1e 	bx	lr
30001f34:	300057a8 	.word	0x300057a8
30001f38:	300057c0 	.word	0x300057c0
30001f3c:	300057d8 	.word	0x300057d8
30001f40:	300057f0 	.word	0x300057f0
30001f44:	30005808 	.word	0x30005808
30001f48:	30005814 	.word	0x30005814
30001f4c:	30005828 	.word	0x30005828

30001f50 <outc>:
30001f50:	e92d4800 	push	{fp, lr}
30001f54:	e28db004 	add	fp, sp, #4	; 0x4
30001f58:	e24dd008 	sub	sp, sp, #8	; 0x8
30001f5c:	e50b0008 	str	r0, [fp, #-8]
30001f60:	e51b0008 	ldr	r0, [fp, #-8]
30001f64:	ebfff90a 	bl	30000394 <putchar>
30001f68:	e3a03000 	mov	r3, #0	; 0x0
30001f6c:	e1a00003 	mov	r0, r3
30001f70:	e24bd004 	sub	sp, fp, #4	; 0x4
30001f74:	e8bd4800 	pop	{fp, lr}
30001f78:	e12fff1e 	bx	lr

30001f7c <outs>:
30001f7c:	e92d4800 	push	{fp, lr}
30001f80:	e28db004 	add	fp, sp, #4	; 0x4
30001f84:	e24dd008 	sub	sp, sp, #8	; 0x8
30001f88:	e50b0008 	str	r0, [fp, #-8]
30001f8c:	ea000007 	b	30001fb0 <outs+0x34>
30001f90:	e51b3008 	ldr	r3, [fp, #-8]
30001f94:	e5d33000 	ldrb	r3, [r3]
30001f98:	e1a02003 	mov	r2, r3
30001f9c:	e51b3008 	ldr	r3, [fp, #-8]
30001fa0:	e2833001 	add	r3, r3, #1	; 0x1
30001fa4:	e50b3008 	str	r3, [fp, #-8]
30001fa8:	e1a00002 	mov	r0, r2
30001fac:	ebfff8f8 	bl	30000394 <putchar>
30001fb0:	e51b3008 	ldr	r3, [fp, #-8]
30001fb4:	e5d33000 	ldrb	r3, [r3]
30001fb8:	e3530000 	cmp	r3, #0	; 0x0
30001fbc:	1afffff3 	bne	30001f90 <outs+0x14>
30001fc0:	e3a03000 	mov	r3, #0	; 0x0
30001fc4:	e1a00003 	mov	r0, r3
30001fc8:	e24bd004 	sub	sp, fp, #4	; 0x4
30001fcc:	e8bd4800 	pop	{fp, lr}
30001fd0:	e12fff1e 	bx	lr

30001fd4 <out_num>:
30001fd4:	e92d4800 	push	{fp, lr}
30001fd8:	e28db004 	add	fp, sp, #4	; 0x4
30001fdc:	e24dd060 	sub	sp, sp, #96	; 0x60
30001fe0:	e50b0058 	str	r0, [fp, #-88]
30001fe4:	e50b105c 	str	r1, [fp, #-92]
30001fe8:	e50b3064 	str	r3, [fp, #-100]
30001fec:	e1a03002 	mov	r3, r2
30001ff0:	e54b305d 	strb	r3, [fp, #-93]
30001ff4:	e3a03000 	mov	r3, #0	; 0x0
30001ff8:	e50b3014 	str	r3, [fp, #-20]
30001ffc:	e24b3054 	sub	r3, fp, #84	; 0x54
30002000:	e2833040 	add	r3, r3, #64	; 0x40
30002004:	e50b3010 	str	r3, [fp, #-16]
30002008:	e3a03000 	mov	r3, #0	; 0x0
3000200c:	e50b300c 	str	r3, [fp, #-12]
30002010:	e3a03000 	mov	r3, #0	; 0x0
30002014:	e50b3008 	str	r3, [fp, #-8]
30002018:	e51b3010 	ldr	r3, [fp, #-16]
3000201c:	e2433001 	sub	r3, r3, #1	; 0x1
30002020:	e50b3010 	str	r3, [fp, #-16]
30002024:	e51b2010 	ldr	r2, [fp, #-16]
30002028:	e3a03000 	mov	r3, #0	; 0x0
3000202c:	e5c23000 	strb	r3, [r2]
30002030:	e51b3058 	ldr	r3, [fp, #-88]
30002034:	e3530000 	cmp	r3, #0	; 0x0
30002038:	aa000003 	bge	3000204c <out_num+0x78>
3000203c:	e51b3058 	ldr	r3, [fp, #-88]
30002040:	e2633000 	rsb	r3, r3, #0	; 0x0
30002044:	e50b3014 	str	r3, [fp, #-20]
30002048:	ea000001 	b	30002054 <out_num+0x80>
3000204c:	e51b3058 	ldr	r3, [fp, #-88]
30002050:	e50b3014 	str	r3, [fp, #-20]
30002054:	e51b3010 	ldr	r3, [fp, #-16]
30002058:	e2433001 	sub	r3, r3, #1	; 0x1
3000205c:	e50b3010 	str	r3, [fp, #-16]
30002060:	e51b205c 	ldr	r2, [fp, #-92]
30002064:	e51b3014 	ldr	r3, [fp, #-20]
30002068:	e1a00003 	mov	r0, r3
3000206c:	e1a01002 	mov	r1, r2
30002070:	eb000afb 	bl	30004c64 <__aeabi_uidivmod>
30002074:	e1a03001 	mov	r3, r1
30002078:	e1a02003 	mov	r2, r3
3000207c:	e59f30dc 	ldr	r3, [pc, #220]	; 30002160 <out_num+0x18c>
30002080:	e7d33002 	ldrb	r3, [r3, r2]
30002084:	e51b2010 	ldr	r2, [fp, #-16]
30002088:	e5c23000 	strb	r3, [r2]
3000208c:	e51b300c 	ldr	r3, [fp, #-12]
30002090:	e2833001 	add	r3, r3, #1	; 0x1
30002094:	e50b300c 	str	r3, [fp, #-12]
30002098:	e51b205c 	ldr	r2, [fp, #-92]
3000209c:	e51b3014 	ldr	r3, [fp, #-20]
300020a0:	e1a00003 	mov	r0, r3
300020a4:	e1a01002 	mov	r1, r2
300020a8:	eb000a72 	bl	30004a78 <__aeabi_uidiv>
300020ac:	e1a03000 	mov	r3, r0
300020b0:	e50b3014 	str	r3, [fp, #-20]
300020b4:	e51b3014 	ldr	r3, [fp, #-20]
300020b8:	e3530000 	cmp	r3, #0	; 0x0
300020bc:	1affffe4 	bne	30002054 <out_num+0x80>
300020c0:	e51b3064 	ldr	r3, [fp, #-100]
300020c4:	e3530000 	cmp	r3, #0	; 0x0
300020c8:	0a000014 	beq	30002120 <out_num+0x14c>
300020cc:	e51b200c 	ldr	r2, [fp, #-12]
300020d0:	e51b3064 	ldr	r3, [fp, #-100]
300020d4:	e1520003 	cmp	r2, r3
300020d8:	aa000010 	bge	30002120 <out_num+0x14c>
300020dc:	e51b3064 	ldr	r3, [fp, #-100]
300020e0:	e51b200c 	ldr	r2, [fp, #-12]
300020e4:	e0623003 	rsb	r3, r2, r3
300020e8:	e50b3008 	str	r3, [fp, #-8]
300020ec:	ea000008 	b	30002114 <out_num+0x140>
300020f0:	e51b3010 	ldr	r3, [fp, #-16]
300020f4:	e2433001 	sub	r3, r3, #1	; 0x1
300020f8:	e50b3010 	str	r3, [fp, #-16]
300020fc:	e51b2010 	ldr	r2, [fp, #-16]
30002100:	e55b305d 	ldrb	r3, [fp, #-93]
30002104:	e5c23000 	strb	r3, [r2]
30002108:	e51b3008 	ldr	r3, [fp, #-8]
3000210c:	e2433001 	sub	r3, r3, #1	; 0x1
30002110:	e50b3008 	str	r3, [fp, #-8]
30002114:	e51b3008 	ldr	r3, [fp, #-8]
30002118:	e3530000 	cmp	r3, #0	; 0x0
3000211c:	1afffff3 	bne	300020f0 <out_num+0x11c>
30002120:	e51b3058 	ldr	r3, [fp, #-88]
30002124:	e3530000 	cmp	r3, #0	; 0x0
30002128:	aa000005 	bge	30002144 <out_num+0x170>
3000212c:	e51b3010 	ldr	r3, [fp, #-16]
30002130:	e2433001 	sub	r3, r3, #1	; 0x1
30002134:	e50b3010 	str	r3, [fp, #-16]
30002138:	e51b2010 	ldr	r2, [fp, #-16]
3000213c:	e3a0302d 	mov	r3, #45	; 0x2d
30002140:	e5c23000 	strb	r3, [r2]
30002144:	e51b0010 	ldr	r0, [fp, #-16]
30002148:	ebffff8b 	bl	30001f7c <outs>
3000214c:	e1a03000 	mov	r3, r0
30002150:	e1a00003 	mov	r0, r3
30002154:	e24bd004 	sub	sp, fp, #4	; 0x4
30002158:	e8bd4800 	pop	{fp, lr}
3000215c:	e12fff1e 	bx	lr
30002160:	3000698e 	.word	0x3000698e

30002164 <my_vprintf>:
30002164:	e92d4800 	push	{fp, lr}
30002168:	e28db004 	add	fp, sp, #4	; 0x4
3000216c:	e24dd010 	sub	sp, sp, #16	; 0x10
30002170:	e50b0010 	str	r0, [fp, #-16]
30002174:	e50b1014 	str	r1, [fp, #-20]
30002178:	e3a03020 	mov	r3, #32	; 0x20
3000217c:	e54b3009 	strb	r3, [fp, #-9]
30002180:	e3a03000 	mov	r3, #0	; 0x0
30002184:	e50b3008 	str	r3, [fp, #-8]
30002188:	ea000090 	b	300023d0 <my_vprintf+0x26c>
3000218c:	e51b3010 	ldr	r3, [fp, #-16]
30002190:	e5d33000 	ldrb	r3, [r3]
30002194:	e3530025 	cmp	r3, #37	; 0x25
30002198:	0a000004 	beq	300021b0 <my_vprintf+0x4c>
3000219c:	e51b3010 	ldr	r3, [fp, #-16]
300021a0:	e5d33000 	ldrb	r3, [r3]
300021a4:	e1a00003 	mov	r0, r3
300021a8:	ebffff68 	bl	30001f50 <outc>
300021ac:	ea000084 	b	300023c4 <my_vprintf+0x260>
300021b0:	e51b3010 	ldr	r3, [fp, #-16]
300021b4:	e2833001 	add	r3, r3, #1	; 0x1
300021b8:	e50b3010 	str	r3, [fp, #-16]
300021bc:	e51b3010 	ldr	r3, [fp, #-16]
300021c0:	e5d33000 	ldrb	r3, [r3]
300021c4:	e3530030 	cmp	r3, #48	; 0x30
300021c8:	1a000013 	bne	3000221c <my_vprintf+0xb8>
300021cc:	e3a03030 	mov	r3, #48	; 0x30
300021d0:	e54b3009 	strb	r3, [fp, #-9]
300021d4:	e51b3010 	ldr	r3, [fp, #-16]
300021d8:	e2833001 	add	r3, r3, #1	; 0x1
300021dc:	e50b3010 	str	r3, [fp, #-16]
300021e0:	ea00000d 	b	3000221c <my_vprintf+0xb8>
300021e4:	e51b3008 	ldr	r3, [fp, #-8]
300021e8:	e1a02083 	lsl	r2, r3, #1
300021ec:	e1a03102 	lsl	r3, r2, #2
300021f0:	e0823003 	add	r3, r2, r3
300021f4:	e50b3008 	str	r3, [fp, #-8]
300021f8:	e51b3010 	ldr	r3, [fp, #-16]
300021fc:	e5d33000 	ldrb	r3, [r3]
30002200:	e2432030 	sub	r2, r3, #48	; 0x30
30002204:	e51b3008 	ldr	r3, [fp, #-8]
30002208:	e0833002 	add	r3, r3, r2
3000220c:	e50b3008 	str	r3, [fp, #-8]
30002210:	e51b3010 	ldr	r3, [fp, #-16]
30002214:	e2833001 	add	r3, r3, #1	; 0x1
30002218:	e50b3010 	str	r3, [fp, #-16]
3000221c:	e51b3010 	ldr	r3, [fp, #-16]
30002220:	e5d33000 	ldrb	r3, [r3]
30002224:	e353002f 	cmp	r3, #47	; 0x2f
30002228:	9a000003 	bls	3000223c <my_vprintf+0xd8>
3000222c:	e51b3010 	ldr	r3, [fp, #-16]
30002230:	e5d33000 	ldrb	r3, [r3]
30002234:	e3530039 	cmp	r3, #57	; 0x39
30002238:	9affffe9 	bls	300021e4 <my_vprintf+0x80>
3000223c:	e51b3010 	ldr	r3, [fp, #-16]
30002240:	e5d33000 	ldrb	r3, [r3]
30002244:	e2433063 	sub	r3, r3, #99	; 0x63
30002248:	e3530015 	cmp	r3, #21	; 0x15
3000224c:	979ff103 	ldrls	pc, [pc, r3, lsl #2]
30002250:	ea000057 	b	300023b4 <my_vprintf+0x250>
30002254:	3000236c 	.word	0x3000236c
30002258:	300022ac 	.word	0x300022ac
3000225c:	300023b4 	.word	0x300023b4
30002260:	300023b4 	.word	0x300023b4
30002264:	300023b4 	.word	0x300023b4
30002268:	300023b4 	.word	0x300023b4
3000226c:	300023b4 	.word	0x300023b4
30002270:	300023b4 	.word	0x300023b4
30002274:	300023b4 	.word	0x300023b4
30002278:	300023b4 	.word	0x300023b4
3000227c:	300023b4 	.word	0x300023b4
30002280:	300023b4 	.word	0x300023b4
30002284:	300022dc 	.word	0x300022dc
30002288:	300023b4 	.word	0x300023b4
3000228c:	300023b4 	.word	0x300023b4
30002290:	300023b4 	.word	0x300023b4
30002294:	30002390 	.word	0x30002390
30002298:	300023b4 	.word	0x300023b4
3000229c:	3000230c 	.word	0x3000230c
300022a0:	300023b4 	.word	0x300023b4
300022a4:	300023b4 	.word	0x300023b4
300022a8:	3000233c 	.word	0x3000233c
300022ac:	e51b3014 	ldr	r3, [fp, #-20]
300022b0:	e2833004 	add	r3, r3, #4	; 0x4
300022b4:	e50b3014 	str	r3, [fp, #-20]
300022b8:	e51b3014 	ldr	r3, [fp, #-20]
300022bc:	e2433004 	sub	r3, r3, #4	; 0x4
300022c0:	e5933000 	ldr	r3, [r3]
300022c4:	e55b2009 	ldrb	r2, [fp, #-9]
300022c8:	e1a00003 	mov	r0, r3
300022cc:	e3a0100a 	mov	r1, #10	; 0xa
300022d0:	e51b3008 	ldr	r3, [fp, #-8]
300022d4:	ebffff3e 	bl	30001fd4 <out_num>
300022d8:	ea000039 	b	300023c4 <my_vprintf+0x260>
300022dc:	e51b3014 	ldr	r3, [fp, #-20]
300022e0:	e2833004 	add	r3, r3, #4	; 0x4
300022e4:	e50b3014 	str	r3, [fp, #-20]
300022e8:	e51b3014 	ldr	r3, [fp, #-20]
300022ec:	e2433004 	sub	r3, r3, #4	; 0x4
300022f0:	e5933000 	ldr	r3, [r3]
300022f4:	e55b2009 	ldrb	r2, [fp, #-9]
300022f8:	e1a00003 	mov	r0, r3
300022fc:	e3a01008 	mov	r1, #8	; 0x8
30002300:	e51b3008 	ldr	r3, [fp, #-8]
30002304:	ebffff32 	bl	30001fd4 <out_num>
30002308:	ea00002d 	b	300023c4 <my_vprintf+0x260>
3000230c:	e51b3014 	ldr	r3, [fp, #-20]
30002310:	e2833004 	add	r3, r3, #4	; 0x4
30002314:	e50b3014 	str	r3, [fp, #-20]
30002318:	e51b3014 	ldr	r3, [fp, #-20]
3000231c:	e2433004 	sub	r3, r3, #4	; 0x4
30002320:	e5933000 	ldr	r3, [r3]
30002324:	e55b2009 	ldrb	r2, [fp, #-9]
30002328:	e1a00003 	mov	r0, r3
3000232c:	e3a0100a 	mov	r1, #10	; 0xa
30002330:	e51b3008 	ldr	r3, [fp, #-8]
30002334:	ebffff26 	bl	30001fd4 <out_num>
30002338:	ea000021 	b	300023c4 <my_vprintf+0x260>
3000233c:	e51b3014 	ldr	r3, [fp, #-20]
30002340:	e2833004 	add	r3, r3, #4	; 0x4
30002344:	e50b3014 	str	r3, [fp, #-20]
30002348:	e51b3014 	ldr	r3, [fp, #-20]
3000234c:	e2433004 	sub	r3, r3, #4	; 0x4
30002350:	e5933000 	ldr	r3, [r3]
30002354:	e55b2009 	ldrb	r2, [fp, #-9]
30002358:	e1a00003 	mov	r0, r3
3000235c:	e3a01010 	mov	r1, #16	; 0x10
30002360:	e51b3008 	ldr	r3, [fp, #-8]
30002364:	ebffff1a 	bl	30001fd4 <out_num>
30002368:	ea000015 	b	300023c4 <my_vprintf+0x260>
3000236c:	e51b3014 	ldr	r3, [fp, #-20]
30002370:	e2833004 	add	r3, r3, #4	; 0x4
30002374:	e50b3014 	str	r3, [fp, #-20]
30002378:	e51b3014 	ldr	r3, [fp, #-20]
3000237c:	e2433004 	sub	r3, r3, #4	; 0x4
30002380:	e5933000 	ldr	r3, [r3]
30002384:	e1a00003 	mov	r0, r3
30002388:	ebfffef0 	bl	30001f50 <outc>
3000238c:	ea00000c 	b	300023c4 <my_vprintf+0x260>
30002390:	e51b3014 	ldr	r3, [fp, #-20]
30002394:	e2833004 	add	r3, r3, #4	; 0x4
30002398:	e50b3014 	str	r3, [fp, #-20]
3000239c:	e51b3014 	ldr	r3, [fp, #-20]
300023a0:	e2433004 	sub	r3, r3, #4	; 0x4
300023a4:	e5933000 	ldr	r3, [r3]
300023a8:	e1a00003 	mov	r0, r3
300023ac:	ebfffef2 	bl	30001f7c <outs>
300023b0:	ea000003 	b	300023c4 <my_vprintf+0x260>
300023b4:	e51b3010 	ldr	r3, [fp, #-16]
300023b8:	e5d33000 	ldrb	r3, [r3]
300023bc:	e1a00003 	mov	r0, r3
300023c0:	ebfffee2 	bl	30001f50 <outc>
300023c4:	e51b3010 	ldr	r3, [fp, #-16]
300023c8:	e2833001 	add	r3, r3, #1	; 0x1
300023cc:	e50b3010 	str	r3, [fp, #-16]
300023d0:	e51b3010 	ldr	r3, [fp, #-16]
300023d4:	e5d33000 	ldrb	r3, [r3]
300023d8:	e3530000 	cmp	r3, #0	; 0x0
300023dc:	1affff6a 	bne	3000218c <my_vprintf+0x28>
300023e0:	e3a03000 	mov	r3, #0	; 0x0
300023e4:	e1a00003 	mov	r0, r3
300023e8:	e24bd004 	sub	sp, fp, #4	; 0x4
300023ec:	e8bd4800 	pop	{fp, lr}
300023f0:	e12fff1e 	bx	lr

300023f4 <printf>:
300023f4:	e92d000f 	push	{r0, r1, r2, r3}
300023f8:	e92d4800 	push	{fp, lr}
300023fc:	e28db004 	add	fp, sp, #4	; 0x4
30002400:	e24dd008 	sub	sp, sp, #8	; 0x8
30002404:	e28b3004 	add	r3, fp, #4	; 0x4
30002408:	e2833004 	add	r3, r3, #4	; 0x4
3000240c:	e50b3008 	str	r3, [fp, #-8]
30002410:	e59b3004 	ldr	r3, [fp, #4]
30002414:	e1a00003 	mov	r0, r3
30002418:	e51b1008 	ldr	r1, [fp, #-8]
3000241c:	ebffff50 	bl	30002164 <my_vprintf>
30002420:	e3a03000 	mov	r3, #0	; 0x0
30002424:	e50b3008 	str	r3, [fp, #-8]
30002428:	e3a03000 	mov	r3, #0	; 0x0
3000242c:	e1a00003 	mov	r0, r3
30002430:	e24bd004 	sub	sp, fp, #4	; 0x4
30002434:	e8bd4800 	pop	{fp, lr}
30002438:	e28dd010 	add	sp, sp, #16	; 0x10
3000243c:	e12fff1e 	bx	lr

30002440 <my_printf_test>:
30002440:	e92d4800 	push	{fp, lr}
30002444:	e28db004 	add	fp, sp, #4	; 0x4
30002448:	e59f00d8 	ldr	r0, [pc, #216]	; 30002528 <my_printf_test+0xe8>
3000244c:	ebffffe8 	bl	300023f4 <printf>
30002450:	e59f00d4 	ldr	r0, [pc, #212]	; 3000252c <my_printf_test+0xec>
30002454:	e3a01041 	mov	r1, #65	; 0x41
30002458:	e3a02061 	mov	r2, #97	; 0x61
3000245c:	ebffffe4 	bl	300023f4 <printf>
30002460:	e59f00c8 	ldr	r0, [pc, #200]	; 30002530 <my_printf_test+0xf0>
30002464:	e3a01a1e 	mov	r1, #122880	; 0x1e000
30002468:	e2811d09 	add	r1, r1, #576	; 0x240
3000246c:	ebffffe0 	bl	300023f4 <printf>
30002470:	e59f00b8 	ldr	r0, [pc, #184]	; 30002530 <my_printf_test+0xf0>
30002474:	e3e01a1e 	mvn	r1, #122880	; 0x1e000
30002478:	e2411f8f 	sub	r1, r1, #572	; 0x23c
3000247c:	e2411003 	sub	r1, r1, #3	; 0x3
30002480:	ebffffdb 	bl	300023f4 <printf>
30002484:	e59f00a8 	ldr	r0, [pc, #168]	; 30002534 <my_printf_test+0xf4>
30002488:	e3a01c55 	mov	r1, #21760	; 0x5500
3000248c:	e28110aa 	add	r1, r1, #170	; 0xaa
30002490:	e1811801 	orr	r1, r1, r1, lsl #16
30002494:	ebffffd6 	bl	300023f4 <printf>
30002498:	e59f0098 	ldr	r0, [pc, #152]	; 30002538 <my_printf_test+0xf8>
3000249c:	e59f1098 	ldr	r1, [pc, #152]	; 3000253c <my_printf_test+0xfc>
300024a0:	ebffffd3 	bl	300023f4 <printf>
300024a4:	e59f0094 	ldr	r0, [pc, #148]	; 30002540 <my_printf_test+0x100>
300024a8:	e3a01a03 	mov	r1, #12288	; 0x3000
300024ac:	e2811039 	add	r1, r1, #57	; 0x39
300024b0:	ebffffcf 	bl	300023f4 <printf>
300024b4:	e59f0088 	ldr	r0, [pc, #136]	; 30002544 <my_printf_test+0x104>
300024b8:	e3a01a03 	mov	r1, #12288	; 0x3000
300024bc:	e2811039 	add	r1, r1, #57	; 0x39
300024c0:	ebffffcb 	bl	300023f4 <printf>
300024c4:	e59f007c 	ldr	r0, [pc, #124]	; 30002548 <my_printf_test+0x108>
300024c8:	e3a01b49 	mov	r1, #74752	; 0x12400
300024cc:	e24110bb 	sub	r1, r1, #187	; 0xbb
300024d0:	ebffffc7 	bl	300023f4 <printf>
300024d4:	e59f0070 	ldr	r0, [pc, #112]	; 3000254c <my_printf_test+0x10c>
300024d8:	e3a01b49 	mov	r1, #74752	; 0x12400
300024dc:	e24110bb 	sub	r1, r1, #187	; 0xbb
300024e0:	ebffffc3 	bl	300023f4 <printf>
300024e4:	e59f0064 	ldr	r0, [pc, #100]	; 30002550 <my_printf_test+0x110>
300024e8:	e3a01001 	mov	r1, #1	; 0x1
300024ec:	ebffffc0 	bl	300023f4 <printf>
300024f0:	e59f005c 	ldr	r0, [pc, #92]	; 30002554 <my_printf_test+0x114>
300024f4:	e3a01001 	mov	r1, #1	; 0x1
300024f8:	ebffffbd 	bl	300023f4 <printf>
300024fc:	e59f0054 	ldr	r0, [pc, #84]	; 30002558 <my_printf_test+0x118>
30002500:	e3a01001 	mov	r1, #1	; 0x1
30002504:	ebffffba 	bl	300023f4 <printf>
30002508:	e59f004c 	ldr	r0, [pc, #76]	; 3000255c <my_printf_test+0x11c>
3000250c:	e3a01001 	mov	r1, #1	; 0x1
30002510:	ebffffb7 	bl	300023f4 <printf>
30002514:	e3a03000 	mov	r3, #0	; 0x0
30002518:	e1a00003 	mov	r0, r3
3000251c:	e24bd004 	sub	sp, fp, #4	; 0x4
30002520:	e8bd4800 	pop	{fp, lr}
30002524:	e12fff1e 	bx	lr
30002528:	30005830 	.word	0x30005830
3000252c:	3000585c 	.word	0x3000585c
30002530:	3000587c 	.word	0x3000587c
30002534:	30005898 	.word	0x30005898
30002538:	300058b4 	.word	0x300058b4
3000253c:	300058d0 	.word	0x300058d0
30002540:	300058e0 	.word	0x300058e0
30002544:	300058ec 	.word	0x300058ec
30002548:	300058f8 	.word	0x300058f8
3000254c:	30005908 	.word	0x30005908
30002550:	30005914 	.word	0x30005914
30002554:	30005924 	.word	0x30005924
30002558:	30005930 	.word	0x30005930
3000255c:	3000593c 	.word	0x3000593c

30002560 <simple_strtoul>:
30002560:	e92d4800 	push	{fp, lr}
30002564:	e28db004 	add	fp, sp, #4	; 0x4
30002568:	e24dd020 	sub	sp, sp, #32	; 0x20
3000256c:	e50b0010 	str	r0, [fp, #-16]
30002570:	e50b1014 	str	r1, [fp, #-20]
30002574:	e50b2018 	str	r2, [fp, #-24]
30002578:	e3a03000 	mov	r3, #0	; 0x0
3000257c:	e50b300c 	str	r3, [fp, #-12]
30002580:	e51b3010 	ldr	r3, [fp, #-16]
30002584:	e5d33000 	ldrb	r3, [r3]
30002588:	e3530030 	cmp	r3, #48	; 0x30
3000258c:	1a00001d 	bne	30002608 <simple_strtoul+0xa8>
30002590:	e51b3010 	ldr	r3, [fp, #-16]
30002594:	e2833001 	add	r3, r3, #1	; 0x1
30002598:	e50b3010 	str	r3, [fp, #-16]
3000259c:	e51b3010 	ldr	r3, [fp, #-16]
300025a0:	e5d33000 	ldrb	r3, [r3]
300025a4:	e3530078 	cmp	r3, #120	; 0x78
300025a8:	0a000003 	beq	300025bc <simple_strtoul+0x5c>
300025ac:	e51b3010 	ldr	r3, [fp, #-16]
300025b0:	e5d33000 	ldrb	r3, [r3]
300025b4:	e3530058 	cmp	r3, #88	; 0x58
300025b8:	1a00000d 	bne	300025f4 <simple_strtoul+0x94>
300025bc:	e51b3010 	ldr	r3, [fp, #-16]
300025c0:	e2833001 	add	r3, r3, #1	; 0x1
300025c4:	e5d33000 	ldrb	r3, [r3]
300025c8:	e1a02003 	mov	r2, r3
300025cc:	e59f3160 	ldr	r3, [pc, #352]	; 30002734 <simple_strtoul+0x1d4>
300025d0:	e7d33002 	ldrb	r3, [r3, r2]
300025d4:	e2033044 	and	r3, r3, #68	; 0x44
300025d8:	e3530000 	cmp	r3, #0	; 0x0
300025dc:	0a000004 	beq	300025f4 <simple_strtoul+0x94>
300025e0:	e3a03010 	mov	r3, #16	; 0x10
300025e4:	e50b3018 	str	r3, [fp, #-24]
300025e8:	e51b3010 	ldr	r3, [fp, #-16]
300025ec:	e2833001 	add	r3, r3, #1	; 0x1
300025f0:	e50b3010 	str	r3, [fp, #-16]
300025f4:	e51b3018 	ldr	r3, [fp, #-24]
300025f8:	e3530000 	cmp	r3, #0	; 0x0
300025fc:	1a000001 	bne	30002608 <simple_strtoul+0xa8>
30002600:	e3a03008 	mov	r3, #8	; 0x8
30002604:	e50b3018 	str	r3, [fp, #-24]
30002608:	e51b3018 	ldr	r3, [fp, #-24]
3000260c:	e3530000 	cmp	r3, #0	; 0x0
30002610:	1a00000b 	bne	30002644 <simple_strtoul+0xe4>
30002614:	e3a0300a 	mov	r3, #10	; 0xa
30002618:	e50b3018 	str	r3, [fp, #-24]
3000261c:	ea000008 	b	30002644 <simple_strtoul+0xe4>
30002620:	e51b200c 	ldr	r2, [fp, #-12]
30002624:	e51b3018 	ldr	r3, [fp, #-24]
30002628:	e0020293 	mul	r2, r3, r2
3000262c:	e51b3008 	ldr	r3, [fp, #-8]
30002630:	e0823003 	add	r3, r2, r3
30002634:	e50b300c 	str	r3, [fp, #-12]
30002638:	e51b3010 	ldr	r3, [fp, #-16]
3000263c:	e2833001 	add	r3, r3, #1	; 0x1
30002640:	e50b3010 	str	r3, [fp, #-16]
30002644:	e51b3010 	ldr	r3, [fp, #-16]
30002648:	e5d33000 	ldrb	r3, [r3]
3000264c:	e1a02003 	mov	r2, r3
30002650:	e59f30dc 	ldr	r3, [pc, #220]	; 30002734 <simple_strtoul+0x1d4>
30002654:	e7d33002 	ldrb	r3, [r3, r2]
30002658:	e2033044 	and	r3, r3, #68	; 0x44
3000265c:	e3530000 	cmp	r3, #0	; 0x0
30002660:	0a000028 	beq	30002708 <simple_strtoul+0x1a8>
30002664:	e51b3010 	ldr	r3, [fp, #-16]
30002668:	e5d33000 	ldrb	r3, [r3]
3000266c:	e1a02003 	mov	r2, r3
30002670:	e59f30bc 	ldr	r3, [pc, #188]	; 30002734 <simple_strtoul+0x1d4>
30002674:	e7d33002 	ldrb	r3, [r3, r2]
30002678:	e2033004 	and	r3, r3, #4	; 0x4
3000267c:	e3530000 	cmp	r3, #0	; 0x0
30002680:	0a000004 	beq	30002698 <simple_strtoul+0x138>
30002684:	e51b3010 	ldr	r3, [fp, #-16]
30002688:	e5d33000 	ldrb	r3, [r3]
3000268c:	e2433030 	sub	r3, r3, #48	; 0x30
30002690:	e50b3020 	str	r3, [fp, #-32]
30002694:	ea000015 	b	300026f0 <simple_strtoul+0x190>
30002698:	e51b3010 	ldr	r3, [fp, #-16]
3000269c:	e5d33000 	ldrb	r3, [r3]
300026a0:	e1a02003 	mov	r2, r3
300026a4:	e59f3088 	ldr	r3, [pc, #136]	; 30002734 <simple_strtoul+0x1d4>
300026a8:	e7d33002 	ldrb	r3, [r3, r2]
300026ac:	e2033002 	and	r3, r3, #2	; 0x2
300026b0:	e3530000 	cmp	r3, #0	; 0x0
300026b4:	0a000007 	beq	300026d8 <simple_strtoul+0x178>
300026b8:	e51b3010 	ldr	r3, [fp, #-16]
300026bc:	e5d33000 	ldrb	r3, [r3]
300026c0:	e1a00003 	mov	r0, r3
300026c4:	eb00001b 	bl	30002738 <__toupper>
300026c8:	e1a03000 	mov	r3, r0
300026cc:	e2433037 	sub	r3, r3, #55	; 0x37
300026d0:	e50b301c 	str	r3, [fp, #-28]
300026d4:	ea000003 	b	300026e8 <simple_strtoul+0x188>
300026d8:	e51b3010 	ldr	r3, [fp, #-16]
300026dc:	e5d33000 	ldrb	r3, [r3]
300026e0:	e2433037 	sub	r3, r3, #55	; 0x37
300026e4:	e50b301c 	str	r3, [fp, #-28]
300026e8:	e51b301c 	ldr	r3, [fp, #-28]
300026ec:	e50b3020 	str	r3, [fp, #-32]
300026f0:	e51b3020 	ldr	r3, [fp, #-32]
300026f4:	e50b3008 	str	r3, [fp, #-8]
300026f8:	e51b2008 	ldr	r2, [fp, #-8]
300026fc:	e51b3018 	ldr	r3, [fp, #-24]
30002700:	e1520003 	cmp	r2, r3
30002704:	3affffc5 	bcc	30002620 <simple_strtoul+0xc0>
30002708:	e51b3014 	ldr	r3, [fp, #-20]
3000270c:	e3530000 	cmp	r3, #0	; 0x0
30002710:	0a000002 	beq	30002720 <simple_strtoul+0x1c0>
30002714:	e51b2010 	ldr	r2, [fp, #-16]
30002718:	e51b3014 	ldr	r3, [fp, #-20]
3000271c:	e5832000 	str	r2, [r3]
30002720:	e51b300c 	ldr	r3, [fp, #-12]
30002724:	e1a00003 	mov	r0, r3
30002728:	e24bd004 	sub	sp, fp, #4	; 0x4
3000272c:	e8bd4800 	pop	{fp, lr}
30002730:	e12fff1e 	bx	lr
30002734:	3000699e 	.word	0x3000699e

30002738 <__toupper>:
30002738:	e52db004 	push	{fp}		; (str fp, [sp, #-4]!)
3000273c:	e28db000 	add	fp, sp, #0	; 0x0
30002740:	e24dd00c 	sub	sp, sp, #12	; 0xc
30002744:	e1a03000 	mov	r3, r0
30002748:	e54b3005 	strb	r3, [fp, #-5]
3000274c:	e55b2005 	ldrb	r2, [fp, #-5]
30002750:	e59f302c 	ldr	r3, [pc, #44]	; 30002784 <__toupper+0x4c>
30002754:	e7d33002 	ldrb	r3, [r3, r2]
30002758:	e2033002 	and	r3, r3, #2	; 0x2
3000275c:	e3530000 	cmp	r3, #0	; 0x0
30002760:	0a000002 	beq	30002770 <__toupper+0x38>
30002764:	e55b3005 	ldrb	r3, [fp, #-5]
30002768:	e2433020 	sub	r3, r3, #32	; 0x20
3000276c:	e54b3005 	strb	r3, [fp, #-5]
30002770:	e55b3005 	ldrb	r3, [fp, #-5]
30002774:	e1a00003 	mov	r0, r3
30002778:	e28bd000 	add	sp, fp, #0	; 0x0
3000277c:	e8bd0800 	pop	{fp}
30002780:	e12fff1e 	bx	lr
30002784:	3000699e 	.word	0x3000699e

30002788 <simple_strtol>:
30002788:	e92d4800 	push	{fp, lr}
3000278c:	e28db004 	add	fp, sp, #4	; 0x4
30002790:	e24dd010 	sub	sp, sp, #16	; 0x10
30002794:	e50b0008 	str	r0, [fp, #-8]
30002798:	e50b100c 	str	r1, [fp, #-12]
3000279c:	e50b2010 	str	r2, [fp, #-16]
300027a0:	e51b3008 	ldr	r3, [fp, #-8]
300027a4:	e5d33000 	ldrb	r3, [r3]
300027a8:	e353002d 	cmp	r3, #45	; 0x2d
300027ac:	1a000009 	bne	300027d8 <simple_strtol+0x50>
300027b0:	e51b3008 	ldr	r3, [fp, #-8]
300027b4:	e2833001 	add	r3, r3, #1	; 0x1
300027b8:	e1a00003 	mov	r0, r3
300027bc:	e51b100c 	ldr	r1, [fp, #-12]
300027c0:	e51b2010 	ldr	r2, [fp, #-16]
300027c4:	ebffff65 	bl	30002560 <simple_strtoul>
300027c8:	e1a03000 	mov	r3, r0
300027cc:	e2633000 	rsb	r3, r3, #0	; 0x0
300027d0:	e50b3014 	str	r3, [fp, #-20]
300027d4:	ea000005 	b	300027f0 <simple_strtol+0x68>
300027d8:	e51b0008 	ldr	r0, [fp, #-8]
300027dc:	e51b100c 	ldr	r1, [fp, #-12]
300027e0:	e51b2010 	ldr	r2, [fp, #-16]
300027e4:	ebffff5d 	bl	30002560 <simple_strtoul>
300027e8:	e1a03000 	mov	r3, r0
300027ec:	e50b3014 	str	r3, [fp, #-20]
300027f0:	e51b3014 	ldr	r3, [fp, #-20]
300027f4:	e1a00003 	mov	r0, r3
300027f8:	e24bd004 	sub	sp, fp, #4	; 0x4
300027fc:	e8bd4800 	pop	{fp, lr}
30002800:	e12fff1e 	bx	lr

30002804 <gets>:
30002804:	e92d4800 	push	{fp, lr}
30002808:	e28db004 	add	fp, sp, #4	; 0x4
3000280c:	e24dd010 	sub	sp, sp, #16	; 0x10
30002810:	e50b0010 	str	r0, [fp, #-16]
30002814:	e3a03000 	mov	r3, #0	; 0x0
30002818:	e50b300c 	str	r3, [fp, #-12]
3000281c:	ebfff6f0 	bl	300003e4 <getchar>
30002820:	e1a03000 	mov	r3, r0
30002824:	e54b3005 	strb	r3, [fp, #-5]
30002828:	e55b3005 	ldrb	r3, [fp, #-5]
3000282c:	e1a00003 	mov	r0, r3
30002830:	ebfff6d7 	bl	30000394 <putchar>
30002834:	e55b3005 	ldrb	r3, [fp, #-5]
30002838:	e353000a 	cmp	r3, #10	; 0xa
3000283c:	1a000002 	bne	3000284c <gets+0x48>
30002840:	e3a0000d 	mov	r0, #13	; 0xd
30002844:	ebfff6d2 	bl	30000394 <putchar>
30002848:	ea000004 	b	30002860 <gets+0x5c>
3000284c:	e55b3005 	ldrb	r3, [fp, #-5]
30002850:	e353000d 	cmp	r3, #13	; 0xd
30002854:	1a000001 	bne	30002860 <gets+0x5c>
30002858:	e3a0000a 	mov	r0, #10	; 0xa
3000285c:	ebfff6cc 	bl	30000394 <putchar>
30002860:	e55b3005 	ldrb	r3, [fp, #-5]
30002864:	e353000a 	cmp	r3, #10	; 0xa
30002868:	0a000002 	beq	30002878 <gets+0x74>
3000286c:	e55b3005 	ldrb	r3, [fp, #-5]
30002870:	e353000d 	cmp	r3, #13	; 0xd
30002874:	1a000009 	bne	300028a0 <gets+0x9c>
30002878:	e51b200c 	ldr	r2, [fp, #-12]
3000287c:	e51b3010 	ldr	r3, [fp, #-16]
30002880:	e0832002 	add	r2, r3, r2
30002884:	e3a03000 	mov	r3, #0	; 0x0
30002888:	e5c23000 	strb	r3, [r2]
3000288c:	e51b3010 	ldr	r3, [fp, #-16]
30002890:	e1a00003 	mov	r0, r3
30002894:	e24bd004 	sub	sp, fp, #4	; 0x4
30002898:	e8bd4800 	pop	{fp, lr}
3000289c:	e12fff1e 	bx	lr
300028a0:	e51b200c 	ldr	r2, [fp, #-12]
300028a4:	e51b3010 	ldr	r3, [fp, #-16]
300028a8:	e0832002 	add	r2, r3, r2
300028ac:	e55b3005 	ldrb	r3, [fp, #-5]
300028b0:	e5c23000 	strb	r3, [r2]
300028b4:	e51b300c 	ldr	r3, [fp, #-12]
300028b8:	e2833001 	add	r3, r3, #1	; 0x1
300028bc:	e50b300c 	str	r3, [fp, #-12]
300028c0:	eaffffd5 	b	3000281c <gets+0x18>

300028c4 <get_int>:
300028c4:	e92d4800 	push	{fp, lr}
300028c8:	e28db004 	add	fp, sp, #4	; 0x4
300028cc:	e24dd068 	sub	sp, sp, #104	; 0x68
300028d0:	e24b3068 	sub	r3, fp, #104	; 0x68
300028d4:	e1a00003 	mov	r0, r3
300028d8:	ebffffc9 	bl	30002804 <gets>
300028dc:	e24b3068 	sub	r3, fp, #104	; 0x68
300028e0:	e1a00003 	mov	r0, r3
300028e4:	e3a01000 	mov	r1, #0	; 0x0
300028e8:	e3a02000 	mov	r2, #0	; 0x0
300028ec:	ebffffa5 	bl	30002788 <simple_strtol>
300028f0:	e1a03000 	mov	r3, r0
300028f4:	e1a00003 	mov	r0, r3
300028f8:	e24bd004 	sub	sp, fp, #4	; 0x4
300028fc:	e8bd4800 	pop	{fp, lr}
30002900:	e12fff1e 	bx	lr

30002904 <get_uint>:
30002904:	e92d4800 	push	{fp, lr}
30002908:	e28db004 	add	fp, sp, #4	; 0x4
3000290c:	e24dd068 	sub	sp, sp, #104	; 0x68
30002910:	e24b3068 	sub	r3, fp, #104	; 0x68
30002914:	e1a00003 	mov	r0, r3
30002918:	ebffffb9 	bl	30002804 <gets>
3000291c:	e24b3068 	sub	r3, fp, #104	; 0x68
30002920:	e1a00003 	mov	r0, r3
30002924:	e3a01000 	mov	r1, #0	; 0x0
30002928:	e3a02000 	mov	r2, #0	; 0x0
3000292c:	ebffff0b 	bl	30002560 <simple_strtoul>
30002930:	e1a03000 	mov	r3, r0
30002934:	e1a00003 	mov	r0, r3
30002938:	e24bd004 	sub	sp, fp, #4	; 0x4
3000293c:	e8bd4800 	pop	{fp, lr}
30002940:	e12fff1e 	bx	lr

30002944 <strcmp>:
30002944:	e52db004 	push	{fp}		; (str fp, [sp, #-4]!)
30002948:	e28db000 	add	fp, sp, #0	; 0x0
3000294c:	e24dd014 	sub	sp, sp, #20	; 0x14
30002950:	e50b0008 	str	r0, [fp, #-8]
30002954:	e50b100c 	str	r1, [fp, #-12]
30002958:	e51b3008 	ldr	r3, [fp, #-8]
3000295c:	e5d32000 	ldrb	r2, [r3]
30002960:	e51b300c 	ldr	r3, [fp, #-12]
30002964:	e5d33000 	ldrb	r3, [r3]
30002968:	e0633002 	rsb	r3, r3, r2
3000296c:	e20330ff 	and	r3, r3, #255	; 0xff
30002970:	e50b3010 	str	r3, [fp, #-16]
30002974:	e51b2010 	ldr	r2, [fp, #-16]
30002978:	e1a03c02 	lsl	r3, r2, #24
3000297c:	e1a03c43 	asr	r3, r3, #24
30002980:	e3530000 	cmp	r3, #0	; 0x0
30002984:	03a03000 	moveq	r3, #0	; 0x0
30002988:	13a03001 	movne	r3, #1	; 0x1
3000298c:	e20320ff 	and	r2, r3, #255	; 0xff
30002990:	e51b300c 	ldr	r3, [fp, #-12]
30002994:	e2833001 	add	r3, r3, #1	; 0x1
30002998:	e50b300c 	str	r3, [fp, #-12]
3000299c:	e3520000 	cmp	r2, #0	; 0x0
300029a0:	1a00000a 	bne	300029d0 <strcmp+0x8c>
300029a4:	e51b3008 	ldr	r3, [fp, #-8]
300029a8:	e5d33000 	ldrb	r3, [r3]
300029ac:	e3530000 	cmp	r3, #0	; 0x0
300029b0:	13a03000 	movne	r3, #0	; 0x0
300029b4:	03a03001 	moveq	r3, #1	; 0x1
300029b8:	e20320ff 	and	r2, r3, #255	; 0xff
300029bc:	e51b3008 	ldr	r3, [fp, #-8]
300029c0:	e2833001 	add	r3, r3, #1	; 0x1
300029c4:	e50b3008 	str	r3, [fp, #-8]
300029c8:	e3520000 	cmp	r2, #0	; 0x0
300029cc:	0affffe1 	beq	30002958 <strcmp+0x14>
300029d0:	e51b2010 	ldr	r2, [fp, #-16]
300029d4:	e1a03c02 	lsl	r3, r2, #24
300029d8:	e1a03c43 	asr	r3, r3, #24
300029dc:	e1a00003 	mov	r0, r3
300029e0:	e28bd000 	add	sp, fp, #0	; 0x0
300029e4:	e8bd0800 	pop	{fp}
300029e8:	e12fff1e 	bx	lr
300029ec:	00000000 	andeq	r0, r0, r0
300029f0:	e2512001 	subs	r2, r1, #1	; 0x1
300029f4:	01a0f00e 	moveq	pc, lr
300029f8:	3a0000e5 	bcc	30002d94 <Ldiv0>
300029fc:	e1500001 	cmp	r0, r1
30002a00:	9a000022 	bls	30002a90 <strcmp+0x14c>
30002a04:	e1110002 	tst	r1, r2
30002a08:	0a000023 	beq	30002a9c <strcmp+0x158>
30002a0c:	e311020e 	tst	r1, #-536870912	; 0xe0000000
30002a10:	01a01181 	lsleq	r1, r1, #3
30002a14:	03a03008 	moveq	r3, #8	; 0x8
30002a18:	13a03001 	movne	r3, #1	; 0x1
30002a1c:	e3510201 	cmp	r1, #268435456	; 0x10000000
30002a20:	31510000 	cmpcc	r1, r0
30002a24:	31a01201 	lslcc	r1, r1, #4
30002a28:	31a03203 	lslcc	r3, r3, #4
30002a2c:	3afffffa 	bcc	30002a1c <strcmp+0xd8>
30002a30:	e3510102 	cmp	r1, #-2147483648	; 0x80000000
30002a34:	31510000 	cmpcc	r1, r0
30002a38:	31a01081 	lslcc	r1, r1, #1
30002a3c:	31a03083 	lslcc	r3, r3, #1
30002a40:	3afffffa 	bcc	30002a30 <strcmp+0xec>
30002a44:	e3a02000 	mov	r2, #0	; 0x0
30002a48:	e1500001 	cmp	r0, r1
30002a4c:	20400001 	subcs	r0, r0, r1
30002a50:	21822003 	orrcs	r2, r2, r3
30002a54:	e15000a1 	cmp	r0, r1, lsr #1
30002a58:	204000a1 	subcs	r0, r0, r1, lsr #1
30002a5c:	218220a3 	orrcs	r2, r2, r3, lsr #1
30002a60:	e1500121 	cmp	r0, r1, lsr #2
30002a64:	20400121 	subcs	r0, r0, r1, lsr #2
30002a68:	21822123 	orrcs	r2, r2, r3, lsr #2
30002a6c:	e15001a1 	cmp	r0, r1, lsr #3
30002a70:	204001a1 	subcs	r0, r0, r1, lsr #3
30002a74:	218221a3 	orrcs	r2, r2, r3, lsr #3
30002a78:	e3500000 	cmp	r0, #0	; 0x0
30002a7c:	11b03223 	lsrsne	r3, r3, #4
30002a80:	11a01221 	lsrne	r1, r1, #4
30002a84:	1affffef 	bne	30002a48 <strcmp+0x104>
30002a88:	e1a00002 	mov	r0, r2
30002a8c:	e1a0f00e 	mov	pc, lr
30002a90:	03a00001 	moveq	r0, #1	; 0x1
30002a94:	13a00000 	movne	r0, #0	; 0x0
30002a98:	e1a0f00e 	mov	pc, lr
30002a9c:	e3510801 	cmp	r1, #65536	; 0x10000
30002aa0:	21a01821 	lsrcs	r1, r1, #16
30002aa4:	23a02010 	movcs	r2, #16	; 0x10
30002aa8:	33a02000 	movcc	r2, #0	; 0x0
30002aac:	e3510c01 	cmp	r1, #256	; 0x100
30002ab0:	21a01421 	lsrcs	r1, r1, #8
30002ab4:	22822008 	addcs	r2, r2, #8	; 0x8
30002ab8:	e3510010 	cmp	r1, #16	; 0x10
30002abc:	21a01221 	lsrcs	r1, r1, #4
30002ac0:	22822004 	addcs	r2, r2, #4	; 0x4
30002ac4:	e3510004 	cmp	r1, #4	; 0x4
30002ac8:	82822003 	addhi	r2, r2, #3	; 0x3
30002acc:	908220a1 	addls	r2, r2, r1, lsr #1
30002ad0:	e1a00230 	lsr	r0, r0, r2
30002ad4:	e1a0f00e 	mov	pc, lr
30002ad8:	90909090 	umullsls	r9, r0, r0, r0
30002adc:	90909090 	umullsls	r9, r0, r0, r0

30002ae0 <__umodsi3>:
30002ae0:	e2512001 	subs	r2, r1, #1	; 0x1
30002ae4:	3a0000aa 	bcc	30002d94 <Ldiv0>
30002ae8:	11500001 	cmpne	r0, r1
30002aec:	03a00000 	moveq	r0, #0	; 0x0
30002af0:	81110002 	tsthi	r1, r2
30002af4:	00000002 	andeq	r0, r0, r2
30002af8:	91a0f00e 	movls	pc, lr
30002afc:	e3a02000 	mov	r2, #0	; 0x0
30002b00:	e3510201 	cmp	r1, #268435456	; 0x10000000
30002b04:	31510000 	cmpcc	r1, r0
30002b08:	31a01201 	lslcc	r1, r1, #4
30002b0c:	32822004 	addcc	r2, r2, #4	; 0x4
30002b10:	3afffffa 	bcc	30002b00 <__umodsi3+0x20>
30002b14:	e3510102 	cmp	r1, #-2147483648	; 0x80000000
30002b18:	31510000 	cmpcc	r1, r0
30002b1c:	31a01081 	lslcc	r1, r1, #1
30002b20:	32822001 	addcc	r2, r2, #1	; 0x1
30002b24:	3afffffa 	bcc	30002b14 <__umodsi3+0x34>
30002b28:	e2522003 	subs	r2, r2, #3	; 0x3
30002b2c:	ba00000e 	blt	30002b6c <__umodsi3+0x8c>
30002b30:	e1500001 	cmp	r0, r1
30002b34:	20400001 	subcs	r0, r0, r1
30002b38:	e15000a1 	cmp	r0, r1, lsr #1
30002b3c:	204000a1 	subcs	r0, r0, r1, lsr #1
30002b40:	e1500121 	cmp	r0, r1, lsr #2
30002b44:	20400121 	subcs	r0, r0, r1, lsr #2
30002b48:	e15001a1 	cmp	r0, r1, lsr #3
30002b4c:	204001a1 	subcs	r0, r0, r1, lsr #3
30002b50:	e3500001 	cmp	r0, #1	; 0x1
30002b54:	e1a01221 	lsr	r1, r1, #4
30002b58:	a2522004 	subsge	r2, r2, #4	; 0x4
30002b5c:	aafffff3 	bge	30002b30 <__umodsi3+0x50>
30002b60:	e3120003 	tst	r2, #3	; 0x3
30002b64:	13300000 	teqne	r0, #0	; 0x0
30002b68:	0a00000a 	beq	30002b98 <__umodsi3+0xb8>
30002b6c:	e3720002 	cmn	r2, #2	; 0x2
30002b70:	ba000006 	blt	30002b90 <__umodsi3+0xb0>
30002b74:	0a000002 	beq	30002b84 <__umodsi3+0xa4>
30002b78:	e1500001 	cmp	r0, r1
30002b7c:	20400001 	subcs	r0, r0, r1
30002b80:	e1a010a1 	lsr	r1, r1, #1
30002b84:	e1500001 	cmp	r0, r1
30002b88:	20400001 	subcs	r0, r0, r1
30002b8c:	e1a010a1 	lsr	r1, r1, #1
30002b90:	e1500001 	cmp	r0, r1
30002b94:	20400001 	subcs	r0, r0, r1
30002b98:	e1a0f00e 	mov	pc, lr
30002b9c:	90909090 	umullsls	r9, r0, r0, r0

30002ba0 <__divsi3>:
30002ba0:	e3510000 	cmp	r1, #0	; 0x0
30002ba4:	e020c001 	eor	ip, r0, r1
30002ba8:	0a000079 	beq	30002d94 <Ldiv0>
30002bac:	42611000 	rsbmi	r1, r1, #0	; 0x0
30002bb0:	e2512001 	subs	r2, r1, #1	; 0x1
30002bb4:	0a000027 	beq	30002c58 <__divsi3+0xb8>
30002bb8:	e1b03000 	movs	r3, r0
30002bbc:	42603000 	rsbmi	r3, r0, #0	; 0x0
30002bc0:	e1530001 	cmp	r3, r1
30002bc4:	9a000026 	bls	30002c64 <__divsi3+0xc4>
30002bc8:	e1110002 	tst	r1, r2
30002bcc:	0a000028 	beq	30002c74 <__divsi3+0xd4>
30002bd0:	e311020e 	tst	r1, #-536870912	; 0xe0000000
30002bd4:	01a01181 	lsleq	r1, r1, #3
30002bd8:	03a02008 	moveq	r2, #8	; 0x8
30002bdc:	13a02001 	movne	r2, #1	; 0x1
30002be0:	e3510201 	cmp	r1, #268435456	; 0x10000000
30002be4:	31510003 	cmpcc	r1, r3
30002be8:	31a01201 	lslcc	r1, r1, #4
30002bec:	31a02202 	lslcc	r2, r2, #4
30002bf0:	3afffffa 	bcc	30002be0 <__divsi3+0x40>
30002bf4:	e3510102 	cmp	r1, #-2147483648	; 0x80000000
30002bf8:	31510003 	cmpcc	r1, r3
30002bfc:	31a01081 	lslcc	r1, r1, #1
30002c00:	31a02082 	lslcc	r2, r2, #1
30002c04:	3afffffa 	bcc	30002bf4 <__divsi3+0x54>
30002c08:	e3a00000 	mov	r0, #0	; 0x0
30002c0c:	e1530001 	cmp	r3, r1
30002c10:	20433001 	subcs	r3, r3, r1
30002c14:	21800002 	orrcs	r0, r0, r2
30002c18:	e15300a1 	cmp	r3, r1, lsr #1
30002c1c:	204330a1 	subcs	r3, r3, r1, lsr #1
30002c20:	218000a2 	orrcs	r0, r0, r2, lsr #1
30002c24:	e1530121 	cmp	r3, r1, lsr #2
30002c28:	20433121 	subcs	r3, r3, r1, lsr #2
30002c2c:	21800122 	orrcs	r0, r0, r2, lsr #2
30002c30:	e15301a1 	cmp	r3, r1, lsr #3
30002c34:	204331a1 	subcs	r3, r3, r1, lsr #3
30002c38:	218001a2 	orrcs	r0, r0, r2, lsr #3
30002c3c:	e3530000 	cmp	r3, #0	; 0x0
30002c40:	11b02222 	lsrsne	r2, r2, #4
30002c44:	11a01221 	lsrne	r1, r1, #4
30002c48:	1affffef 	bne	30002c0c <__divsi3+0x6c>
30002c4c:	e35c0000 	cmp	ip, #0	; 0x0
30002c50:	42600000 	rsbmi	r0, r0, #0	; 0x0
30002c54:	e1a0f00e 	mov	pc, lr
30002c58:	e13c0000 	teq	ip, r0
30002c5c:	42600000 	rsbmi	r0, r0, #0	; 0x0
30002c60:	e1a0f00e 	mov	pc, lr
30002c64:	33a00000 	movcc	r0, #0	; 0x0
30002c68:	01a00fcc 	asreq	r0, ip, #31
30002c6c:	03800001 	orreq	r0, r0, #1	; 0x1
30002c70:	e1a0f00e 	mov	pc, lr
30002c74:	e3510801 	cmp	r1, #65536	; 0x10000
30002c78:	21a01821 	lsrcs	r1, r1, #16
30002c7c:	23a02010 	movcs	r2, #16	; 0x10
30002c80:	33a02000 	movcc	r2, #0	; 0x0
30002c84:	e3510c01 	cmp	r1, #256	; 0x100
30002c88:	21a01421 	lsrcs	r1, r1, #8
30002c8c:	22822008 	addcs	r2, r2, #8	; 0x8
30002c90:	e3510010 	cmp	r1, #16	; 0x10
30002c94:	21a01221 	lsrcs	r1, r1, #4
30002c98:	22822004 	addcs	r2, r2, #4	; 0x4
30002c9c:	e3510004 	cmp	r1, #4	; 0x4
30002ca0:	82822003 	addhi	r2, r2, #3	; 0x3
30002ca4:	908220a1 	addls	r2, r2, r1, lsr #1
30002ca8:	e35c0000 	cmp	ip, #0	; 0x0
30002cac:	e1a00233 	lsr	r0, r3, r2
30002cb0:	42600000 	rsbmi	r0, r0, #0	; 0x0
30002cb4:	e1a0f00e 	mov	pc, lr
30002cb8:	90909090 	umullsls	r9, r0, r0, r0
30002cbc:	90909090 	umullsls	r9, r0, r0, r0

30002cc0 <__modsi3>:
30002cc0:	e3510000 	cmp	r1, #0	; 0x0
30002cc4:	0a000032 	beq	30002d94 <Ldiv0>
30002cc8:	42611000 	rsbmi	r1, r1, #0	; 0x0
30002ccc:	e1b0c000 	movs	ip, r0
30002cd0:	42600000 	rsbmi	r0, r0, #0	; 0x0
30002cd4:	e2512001 	subs	r2, r1, #1	; 0x1
30002cd8:	11500001 	cmpne	r0, r1
30002cdc:	03a00000 	moveq	r0, #0	; 0x0
30002ce0:	81110002 	tsthi	r1, r2
30002ce4:	00000002 	andeq	r0, r0, r2
30002ce8:	9a000026 	bls	30002d88 <__modsi3+0xc8>
30002cec:	e3a02000 	mov	r2, #0	; 0x0
30002cf0:	e3510201 	cmp	r1, #268435456	; 0x10000000
30002cf4:	31510000 	cmpcc	r1, r0
30002cf8:	31a01201 	lslcc	r1, r1, #4
30002cfc:	32822004 	addcc	r2, r2, #4	; 0x4
30002d00:	3afffffa 	bcc	30002cf0 <__modsi3+0x30>
30002d04:	e3510102 	cmp	r1, #-2147483648	; 0x80000000
30002d08:	31510000 	cmpcc	r1, r0
30002d0c:	31a01081 	lslcc	r1, r1, #1
30002d10:	32822001 	addcc	r2, r2, #1	; 0x1
30002d14:	3afffffa 	bcc	30002d04 <__modsi3+0x44>
30002d18:	e2522003 	subs	r2, r2, #3	; 0x3
30002d1c:	ba00000e 	blt	30002d5c <__modsi3+0x9c>
30002d20:	e1500001 	cmp	r0, r1
30002d24:	20400001 	subcs	r0, r0, r1
30002d28:	e15000a1 	cmp	r0, r1, lsr #1
30002d2c:	204000a1 	subcs	r0, r0, r1, lsr #1
30002d30:	e1500121 	cmp	r0, r1, lsr #2
30002d34:	20400121 	subcs	r0, r0, r1, lsr #2
30002d38:	e15001a1 	cmp	r0, r1, lsr #3
30002d3c:	204001a1 	subcs	r0, r0, r1, lsr #3
30002d40:	e3500001 	cmp	r0, #1	; 0x1
30002d44:	e1a01221 	lsr	r1, r1, #4
30002d48:	a2522004 	subsge	r2, r2, #4	; 0x4
30002d4c:	aafffff3 	bge	30002d20 <__modsi3+0x60>
30002d50:	e3120003 	tst	r2, #3	; 0x3
30002d54:	13300000 	teqne	r0, #0	; 0x0
30002d58:	0a00000a 	beq	30002d88 <__modsi3+0xc8>
30002d5c:	e3720002 	cmn	r2, #2	; 0x2
30002d60:	ba000006 	blt	30002d80 <__modsi3+0xc0>
30002d64:	0a000002 	beq	30002d74 <__modsi3+0xb4>
30002d68:	e1500001 	cmp	r0, r1
30002d6c:	20400001 	subcs	r0, r0, r1
30002d70:	e1a010a1 	lsr	r1, r1, #1
30002d74:	e1500001 	cmp	r0, r1
30002d78:	20400001 	subcs	r0, r0, r1
30002d7c:	e1a010a1 	lsr	r1, r1, #1
30002d80:	e1500001 	cmp	r0, r1
30002d84:	20400001 	subcs	r0, r0, r1
30002d88:	e35c0000 	cmp	ip, #0	; 0x0
30002d8c:	42600000 	rsbmi	r0, r0, #0	; 0x0
30002d90:	e1a0f00e 	mov	pc, lr

30002d94 <Ldiv0>:
30002d94:	e52de004 	push	{lr}		; (str lr, [sp, #-4]!)
30002d98:	e3a00000 	mov	r0, #0	; 0x0
30002d9c:	e49df004 	pop	{pc}		; (ldr pc, [sp], #4)

30002da0 <font_init>:
30002da0:	e92d4800 	push	{fp, lr}
30002da4:	e28db004 	add	fp, sp, #4	; 0x4
30002da8:	e59f0018 	ldr	r0, [pc, #24]	; 30002dc8 <font_init+0x28>
30002dac:	e59f1018 	ldr	r1, [pc, #24]	; 30002dcc <font_init+0x2c>
30002db0:	e59f2018 	ldr	r2, [pc, #24]	; 30002dd0 <font_init+0x30>
30002db4:	e59f3018 	ldr	r3, [pc, #24]	; 30002dd4 <font_init+0x34>
30002db8:	eb00032e 	bl	30003a78 <get_lcd_params>
30002dbc:	e24bd004 	sub	sp, fp, #4	; 0x4
30002dc0:	e8bd4800 	pop	{fp, lr}
30002dc4:	e12fff1e 	bx	lr
30002dc8:	30006b04 	.word	0x30006b04
30002dcc:	30006b08 	.word	0x30006b08
30002dd0:	30006b0c 	.word	0x30006b0c
30002dd4:	30006b10 	.word	0x30006b10

30002dd8 <fb_print_char>:
30002dd8:	e92d4800 	push	{fp, lr}
30002ddc:	e28db004 	add	fp, sp, #4	; 0x4
30002de0:	e24dd028 	sub	sp, sp, #40	; 0x28
30002de4:	e50b0020 	str	r0, [fp, #-32]
30002de8:	e50b1024 	str	r1, [fp, #-36]
30002dec:	e50b302c 	str	r3, [fp, #-44]
30002df0:	e1a03002 	mov	r3, r2
30002df4:	e54b3025 	strb	r3, [fp, #-37]
30002df8:	e59f20c8 	ldr	r2, [pc, #200]	; 30002ec8 <fb_print_char+0xf0>
30002dfc:	e55b3025 	ldrb	r3, [fp, #-37]
30002e00:	e1a03203 	lsl	r3, r3, #4
30002e04:	e0823003 	add	r3, r2, r3
30002e08:	e50b3010 	str	r3, [fp, #-16]
30002e0c:	e51b3024 	ldr	r3, [fp, #-36]
30002e10:	e50b3014 	str	r3, [fp, #-20]
30002e14:	ea000023 	b	30002ea8 <fb_print_char+0xd0>
30002e18:	e51b3010 	ldr	r3, [fp, #-16]
30002e1c:	e5d33000 	ldrb	r3, [r3]
30002e20:	e54b3009 	strb	r3, [fp, #-9]
30002e24:	e51b3010 	ldr	r3, [fp, #-16]
30002e28:	e2833001 	add	r3, r3, #1	; 0x1
30002e2c:	e50b3010 	str	r3, [fp, #-16]
30002e30:	e3a03007 	mov	r3, #7	; 0x7
30002e34:	e50b3008 	str	r3, [fp, #-8]
30002e38:	e51b3020 	ldr	r3, [fp, #-32]
30002e3c:	e50b3018 	str	r3, [fp, #-24]
30002e40:	ea000010 	b	30002e88 <fb_print_char+0xb0>
30002e44:	e55b2009 	ldrb	r2, [fp, #-9]
30002e48:	e51b3008 	ldr	r3, [fp, #-8]
30002e4c:	e1a03352 	asr	r3, r2, r3
30002e50:	e2033001 	and	r3, r3, #1	; 0x1
30002e54:	e20330ff 	and	r3, r3, #255	; 0xff
30002e58:	e3530000 	cmp	r3, #0	; 0x0
30002e5c:	0a000003 	beq	30002e70 <fb_print_char+0x98>
30002e60:	e51b0018 	ldr	r0, [fp, #-24]
30002e64:	e51b1014 	ldr	r1, [fp, #-20]
30002e68:	e51b202c 	ldr	r2, [fp, #-44]
30002e6c:	eb000093 	bl	300030c0 <fb_put_pixel>
30002e70:	e51b3008 	ldr	r3, [fp, #-8]
30002e74:	e2433001 	sub	r3, r3, #1	; 0x1
30002e78:	e50b3008 	str	r3, [fp, #-8]
30002e7c:	e51b3018 	ldr	r3, [fp, #-24]
30002e80:	e2833001 	add	r3, r3, #1	; 0x1
30002e84:	e50b3018 	str	r3, [fp, #-24]
30002e88:	e51b3020 	ldr	r3, [fp, #-32]
30002e8c:	e2832008 	add	r2, r3, #8	; 0x8
30002e90:	e51b3018 	ldr	r3, [fp, #-24]
30002e94:	e1520003 	cmp	r2, r3
30002e98:	caffffe9 	bgt	30002e44 <fb_print_char+0x6c>
30002e9c:	e51b3014 	ldr	r3, [fp, #-20]
30002ea0:	e2833001 	add	r3, r3, #1	; 0x1
30002ea4:	e50b3014 	str	r3, [fp, #-20]
30002ea8:	e51b3024 	ldr	r3, [fp, #-36]
30002eac:	e2832010 	add	r2, r3, #16	; 0x10
30002eb0:	e51b3014 	ldr	r3, [fp, #-20]
30002eb4:	e1520003 	cmp	r2, r3
30002eb8:	caffffd6 	bgt	30002e18 <fb_print_char+0x40>
30002ebc:	e24bd004 	sub	sp, fp, #4	; 0x4
30002ec0:	e8bd4800 	pop	{fp, lr}
30002ec4:	e12fff1e 	bx	lr
30002ec8:	3000598c 	.word	0x3000598c

30002ecc <fb_print_string>:
30002ecc:	e92d4800 	push	{fp, lr}
30002ed0:	e28db004 	add	fp, sp, #4	; 0x4
30002ed4:	e24dd018 	sub	sp, sp, #24	; 0x18
30002ed8:	e50b0010 	str	r0, [fp, #-16]
30002edc:	e50b1014 	str	r1, [fp, #-20]
30002ee0:	e50b2018 	str	r2, [fp, #-24]
30002ee4:	e50b301c 	str	r3, [fp, #-28]
30002ee8:	e3a03000 	mov	r3, #0	; 0x0
30002eec:	e50b300c 	str	r3, [fp, #-12]
30002ef0:	ea00002b 	b	30002fa4 <fb_print_string+0xd8>
30002ef4:	e51b200c 	ldr	r2, [fp, #-12]
30002ef8:	e51b3018 	ldr	r3, [fp, #-24]
30002efc:	e0833002 	add	r3, r3, r2
30002f00:	e5d33000 	ldrb	r3, [r3]
30002f04:	e353000a 	cmp	r3, #10	; 0xa
30002f08:	1a000003 	bne	30002f1c <fb_print_string+0x50>
30002f0c:	e51b3014 	ldr	r3, [fp, #-20]
30002f10:	e2833010 	add	r3, r3, #16	; 0x10
30002f14:	e50b3014 	str	r3, [fp, #-20]
30002f18:	ea00001e 	b	30002f98 <fb_print_string+0xcc>
30002f1c:	e51b200c 	ldr	r2, [fp, #-12]
30002f20:	e51b3018 	ldr	r3, [fp, #-24]
30002f24:	e0833002 	add	r3, r3, r2
30002f28:	e5d33000 	ldrb	r3, [r3]
30002f2c:	e353000d 	cmp	r3, #13	; 0xd
30002f30:	1a000002 	bne	30002f40 <fb_print_string+0x74>
30002f34:	e3a03000 	mov	r3, #0	; 0x0
30002f38:	e50b3010 	str	r3, [fp, #-16]
30002f3c:	ea000015 	b	30002f98 <fb_print_string+0xcc>
30002f40:	e51b200c 	ldr	r2, [fp, #-12]
30002f44:	e51b3018 	ldr	r3, [fp, #-24]
30002f48:	e0833002 	add	r3, r3, r2
30002f4c:	e5d33000 	ldrb	r3, [r3]
30002f50:	e51b0010 	ldr	r0, [fp, #-16]
30002f54:	e51b1014 	ldr	r1, [fp, #-20]
30002f58:	e1a02003 	mov	r2, r3
30002f5c:	e51b301c 	ldr	r3, [fp, #-28]
30002f60:	ebffff9c 	bl	30002dd8 <fb_print_char>
30002f64:	e51b3010 	ldr	r3, [fp, #-16]
30002f68:	e2833008 	add	r3, r3, #8	; 0x8
30002f6c:	e50b3010 	str	r3, [fp, #-16]
30002f70:	e59f3050 	ldr	r3, [pc, #80]	; 30002fc8 <fb_print_string+0xfc>
30002f74:	e5932000 	ldr	r2, [r3]
30002f78:	e51b3010 	ldr	r3, [fp, #-16]
30002f7c:	e1530002 	cmp	r3, r2
30002f80:	ba000004 	blt	30002f98 <fb_print_string+0xcc>
30002f84:	e3a03000 	mov	r3, #0	; 0x0
30002f88:	e50b3010 	str	r3, [fp, #-16]
30002f8c:	e51b3014 	ldr	r3, [fp, #-20]
30002f90:	e2833010 	add	r3, r3, #16	; 0x10
30002f94:	e50b3014 	str	r3, [fp, #-20]
30002f98:	e51b300c 	ldr	r3, [fp, #-12]
30002f9c:	e2833001 	add	r3, r3, #1	; 0x1
30002fa0:	e50b300c 	str	r3, [fp, #-12]
30002fa4:	e51b200c 	ldr	r2, [fp, #-12]
30002fa8:	e51b3018 	ldr	r3, [fp, #-24]
30002fac:	e0833002 	add	r3, r3, r2
30002fb0:	e5d33000 	ldrb	r3, [r3]
30002fb4:	e3530000 	cmp	r3, #0	; 0x0
30002fb8:	1affffcd 	bne	30002ef4 <fb_print_string+0x28>
30002fbc:	e24bd004 	sub	sp, fp, #4	; 0x4
30002fc0:	e8bd4800 	pop	{fp, lr}
30002fc4:	e12fff1e 	bx	lr
30002fc8:	30006b08 	.word	0x30006b08

30002fcc <fb_get_lcd_params>:
30002fcc:	e92d4800 	push	{fp, lr}
30002fd0:	e28db004 	add	fp, sp, #4	; 0x4
30002fd4:	e59f0018 	ldr	r0, [pc, #24]	; 30002ff4 <fb_get_lcd_params+0x28>
30002fd8:	e59f1018 	ldr	r1, [pc, #24]	; 30002ff8 <fb_get_lcd_params+0x2c>
30002fdc:	e59f2018 	ldr	r2, [pc, #24]	; 30002ffc <fb_get_lcd_params+0x30>
30002fe0:	e59f3018 	ldr	r3, [pc, #24]	; 30003000 <fb_get_lcd_params+0x34>
30002fe4:	eb0002a3 	bl	30003a78 <get_lcd_params>
30002fe8:	e24bd004 	sub	sp, fp, #4	; 0x4
30002fec:	e8bd4800 	pop	{fp, lr}
30002ff0:	e12fff1e 	bx	lr
30002ff4:	30006b14 	.word	0x30006b14
30002ff8:	30006b18 	.word	0x30006b18
30002ffc:	30006b1c 	.word	0x30006b1c
30003000:	30006b20 	.word	0x30006b20

30003004 <convert32bppto16bpp>:
30003004:	e52db004 	push	{fp}		; (str fp, [sp, #-4]!)
30003008:	e28db000 	add	fp, sp, #0	; 0x0
3000300c:	e24dd01c 	sub	sp, sp, #28	; 0x1c
30003010:	e50b0018 	str	r0, [fp, #-24]
30003014:	e51b3018 	ldr	r3, [fp, #-24]
30003018:	e1a03823 	lsr	r3, r3, #16
3000301c:	e20330ff 	and	r3, r3, #255	; 0xff
30003020:	e50b3010 	str	r3, [fp, #-16]
30003024:	e51b3018 	ldr	r3, [fp, #-24]
30003028:	e1a03423 	lsr	r3, r3, #8
3000302c:	e20330ff 	and	r3, r3, #255	; 0xff
30003030:	e50b300c 	str	r3, [fp, #-12]
30003034:	e51b3018 	ldr	r3, [fp, #-24]
30003038:	e20330ff 	and	r3, r3, #255	; 0xff
3000303c:	e50b3008 	str	r3, [fp, #-8]
30003040:	e51b3010 	ldr	r3, [fp, #-16]
30003044:	e1a031c3 	asr	r3, r3, #3
30003048:	e50b3010 	str	r3, [fp, #-16]
3000304c:	e51b300c 	ldr	r3, [fp, #-12]
30003050:	e1a03143 	asr	r3, r3, #2
30003054:	e50b300c 	str	r3, [fp, #-12]
30003058:	e51b3008 	ldr	r3, [fp, #-8]
3000305c:	e1a031c3 	asr	r3, r3, #3
30003060:	e50b3008 	str	r3, [fp, #-8]
30003064:	e51b3010 	ldr	r3, [fp, #-16]
30003068:	e1a03583 	lsl	r3, r3, #11
3000306c:	e1a03803 	lsl	r3, r3, #16
30003070:	e1a02823 	lsr	r2, r3, #16
30003074:	e51b300c 	ldr	r3, [fp, #-12]
30003078:	e1a03283 	lsl	r3, r3, #5
3000307c:	e1a03803 	lsl	r3, r3, #16
30003080:	e1a03823 	lsr	r3, r3, #16
30003084:	e1823003 	orr	r3, r2, r3
30003088:	e1a03803 	lsl	r3, r3, #16
3000308c:	e1a02823 	lsr	r2, r3, #16
30003090:	e51b3008 	ldr	r3, [fp, #-8]
30003094:	e1a03803 	lsl	r3, r3, #16
30003098:	e1a03823 	lsr	r3, r3, #16
3000309c:	e1823003 	orr	r3, r2, r3
300030a0:	e1a03803 	lsl	r3, r3, #16
300030a4:	e1a03823 	lsr	r3, r3, #16
300030a8:	e1a03803 	lsl	r3, r3, #16
300030ac:	e1a03823 	lsr	r3, r3, #16
300030b0:	e1a00003 	mov	r0, r3
300030b4:	e28bd000 	add	sp, fp, #0	; 0x0
300030b8:	e8bd0800 	pop	{fp}
300030bc:	e12fff1e 	bx	lr

300030c0 <fb_put_pixel>:
300030c0:	e92d4800 	push	{fp, lr}
300030c4:	e28db004 	add	fp, sp, #4	; 0x4
300030c8:	e24dd020 	sub	sp, sp, #32	; 0x20
300030cc:	e50b0018 	str	r0, [fp, #-24]
300030d0:	e50b101c 	str	r1, [fp, #-28]
300030d4:	e50b2020 	str	r2, [fp, #-32]
300030d8:	e59f30f0 	ldr	r3, [pc, #240]	; 300031d0 <fb_put_pixel+0x110>
300030dc:	e5932000 	ldr	r2, [r3]
300030e0:	e59f30ec 	ldr	r3, [pc, #236]	; 300031d4 <fb_put_pixel+0x114>
300030e4:	e5933000 	ldr	r3, [r3]
300030e8:	e0030392 	mul	r3, r2, r3
300030ec:	e2832007 	add	r2, r3, #7	; 0x7
300030f0:	e3530000 	cmp	r3, #0	; 0x0
300030f4:	b1a03002 	movlt	r3, r2
300030f8:	e1a031c3 	asr	r3, r3, #3
300030fc:	e1a02003 	mov	r2, r3
30003100:	e51b301c 	ldr	r3, [fp, #-28]
30003104:	e0030392 	mul	r3, r2, r3
30003108:	e1a02003 	mov	r2, r3
3000310c:	e59f30c4 	ldr	r3, [pc, #196]	; 300031d8 <fb_put_pixel+0x118>
30003110:	e5933000 	ldr	r3, [r3]
30003114:	e0821003 	add	r1, r2, r3
30003118:	e59f30b4 	ldr	r3, [pc, #180]	; 300031d4 <fb_put_pixel+0x114>
3000311c:	e5932000 	ldr	r2, [r3]
30003120:	e51b3018 	ldr	r3, [fp, #-24]
30003124:	e0030392 	mul	r3, r2, r3
30003128:	e2832007 	add	r2, r3, #7	; 0x7
3000312c:	e3530000 	cmp	r3, #0	; 0x0
30003130:	b1a03002 	movlt	r3, r2
30003134:	e1a031c3 	asr	r3, r3, #3
30003138:	e0813003 	add	r3, r1, r3
3000313c:	e50b3008 	str	r3, [fp, #-8]
30003140:	e59f308c 	ldr	r3, [pc, #140]	; 300031d4 <fb_put_pixel+0x114>
30003144:	e5933000 	ldr	r3, [r3]
30003148:	e50b3024 	str	r3, [fp, #-36]
3000314c:	e51b3024 	ldr	r3, [fp, #-36]
30003150:	e3530010 	cmp	r3, #16	; 0x10
30003154:	0a00000c 	beq	3000318c <fb_put_pixel+0xcc>
30003158:	e51b3024 	ldr	r3, [fp, #-36]
3000315c:	e3530020 	cmp	r3, #32	; 0x20
30003160:	0a000012 	beq	300031b0 <fb_put_pixel+0xf0>
30003164:	e51b3024 	ldr	r3, [fp, #-36]
30003168:	e3530008 	cmp	r3, #8	; 0x8
3000316c:	1a000014 	bne	300031c4 <fb_put_pixel+0x104>
30003170:	e51b3008 	ldr	r3, [fp, #-8]
30003174:	e50b3014 	str	r3, [fp, #-20]
30003178:	e51b3020 	ldr	r3, [fp, #-32]
3000317c:	e20330ff 	and	r3, r3, #255	; 0xff
30003180:	e51b2014 	ldr	r2, [fp, #-20]
30003184:	e5c23000 	strb	r3, [r2]
30003188:	ea00000d 	b	300031c4 <fb_put_pixel+0x104>
3000318c:	e51b3008 	ldr	r3, [fp, #-8]
30003190:	e50b3010 	str	r3, [fp, #-16]
30003194:	e51b0020 	ldr	r0, [fp, #-32]
30003198:	ebffff99 	bl	30003004 <convert32bppto16bpp>
3000319c:	e1a03000 	mov	r3, r0
300031a0:	e1a02003 	mov	r2, r3
300031a4:	e51b3010 	ldr	r3, [fp, #-16]
300031a8:	e1c320b0 	strh	r2, [r3]
300031ac:	ea000004 	b	300031c4 <fb_put_pixel+0x104>
300031b0:	e51b3008 	ldr	r3, [fp, #-8]
300031b4:	e50b300c 	str	r3, [fp, #-12]
300031b8:	e51b200c 	ldr	r2, [fp, #-12]
300031bc:	e51b3020 	ldr	r3, [fp, #-32]
300031c0:	e5823000 	str	r3, [r2]
300031c4:	e24bd004 	sub	sp, fp, #4	; 0x4
300031c8:	e8bd4800 	pop	{fp, lr}
300031cc:	e12fff1e 	bx	lr
300031d0:	30006b18 	.word	0x30006b18
300031d4:	30006b20 	.word	0x30006b20
300031d8:	30006b14 	.word	0x30006b14

300031dc <draw_circle>:
300031dc:	e92d4800 	push	{fp, lr}
300031e0:	e28db004 	add	fp, sp, #4	; 0x4
300031e4:	e24dd020 	sub	sp, sp, #32	; 0x20
300031e8:	e50b0018 	str	r0, [fp, #-24]
300031ec:	e50b101c 	str	r1, [fp, #-28]
300031f0:	e50b2020 	str	r2, [fp, #-32]
300031f4:	e50b3024 	str	r3, [fp, #-36]
300031f8:	e3a03000 	mov	r3, #0	; 0x0
300031fc:	e50b3010 	str	r3, [fp, #-16]
30003200:	e51b3020 	ldr	r3, [fp, #-32]
30003204:	e50b300c 	str	r3, [fp, #-12]
30003208:	ea000067 	b	300033ac <draw_circle+0x1d0>
3000320c:	e51b2018 	ldr	r2, [fp, #-24]
30003210:	e51b3010 	ldr	r3, [fp, #-16]
30003214:	e0821003 	add	r1, r2, r3
30003218:	e51b201c 	ldr	r2, [fp, #-28]
3000321c:	e51b300c 	ldr	r3, [fp, #-12]
30003220:	e0633002 	rsb	r3, r3, r2
30003224:	e51b2024 	ldr	r2, [fp, #-36]
30003228:	e1a00001 	mov	r0, r1
3000322c:	e1a01003 	mov	r1, r3
30003230:	ebffffa2 	bl	300030c0 <fb_put_pixel>
30003234:	e51b2018 	ldr	r2, [fp, #-24]
30003238:	e51b3010 	ldr	r3, [fp, #-16]
3000323c:	e0631002 	rsb	r1, r3, r2
30003240:	e51b201c 	ldr	r2, [fp, #-28]
30003244:	e51b300c 	ldr	r3, [fp, #-12]
30003248:	e0633002 	rsb	r3, r3, r2
3000324c:	e51b2024 	ldr	r2, [fp, #-36]
30003250:	e1a00001 	mov	r0, r1
30003254:	e1a01003 	mov	r1, r3
30003258:	ebffff98 	bl	300030c0 <fb_put_pixel>
3000325c:	e51b2018 	ldr	r2, [fp, #-24]
30003260:	e51b3010 	ldr	r3, [fp, #-16]
30003264:	e0631002 	rsb	r1, r3, r2
30003268:	e51b201c 	ldr	r2, [fp, #-28]
3000326c:	e51b300c 	ldr	r3, [fp, #-12]
30003270:	e0823003 	add	r3, r2, r3
30003274:	e51b2024 	ldr	r2, [fp, #-36]
30003278:	e1a00001 	mov	r0, r1
3000327c:	e1a01003 	mov	r1, r3
30003280:	ebffff8e 	bl	300030c0 <fb_put_pixel>
30003284:	e51b2018 	ldr	r2, [fp, #-24]
30003288:	e51b3010 	ldr	r3, [fp, #-16]
3000328c:	e0821003 	add	r1, r2, r3
30003290:	e51b201c 	ldr	r2, [fp, #-28]
30003294:	e51b300c 	ldr	r3, [fp, #-12]
30003298:	e0823003 	add	r3, r2, r3
3000329c:	e51b2024 	ldr	r2, [fp, #-36]
300032a0:	e1a00001 	mov	r0, r1
300032a4:	e1a01003 	mov	r1, r3
300032a8:	ebffff84 	bl	300030c0 <fb_put_pixel>
300032ac:	e51b2018 	ldr	r2, [fp, #-24]
300032b0:	e51b300c 	ldr	r3, [fp, #-12]
300032b4:	e0821003 	add	r1, r2, r3
300032b8:	e51b201c 	ldr	r2, [fp, #-28]
300032bc:	e51b3010 	ldr	r3, [fp, #-16]
300032c0:	e0823003 	add	r3, r2, r3
300032c4:	e51b2024 	ldr	r2, [fp, #-36]
300032c8:	e1a00001 	mov	r0, r1
300032cc:	e1a01003 	mov	r1, r3
300032d0:	ebffff7a 	bl	300030c0 <fb_put_pixel>
300032d4:	e51b2018 	ldr	r2, [fp, #-24]
300032d8:	e51b300c 	ldr	r3, [fp, #-12]
300032dc:	e0821003 	add	r1, r2, r3
300032e0:	e51b201c 	ldr	r2, [fp, #-28]
300032e4:	e51b3010 	ldr	r3, [fp, #-16]
300032e8:	e0633002 	rsb	r3, r3, r2
300032ec:	e51b2024 	ldr	r2, [fp, #-36]
300032f0:	e1a00001 	mov	r0, r1
300032f4:	e1a01003 	mov	r1, r3
300032f8:	ebffff70 	bl	300030c0 <fb_put_pixel>
300032fc:	e51b2018 	ldr	r2, [fp, #-24]
30003300:	e51b300c 	ldr	r3, [fp, #-12]
30003304:	e0631002 	rsb	r1, r3, r2
30003308:	e51b201c 	ldr	r2, [fp, #-28]
3000330c:	e51b3010 	ldr	r3, [fp, #-16]
30003310:	e0633002 	rsb	r3, r3, r2
30003314:	e51b2024 	ldr	r2, [fp, #-36]
30003318:	e1a00001 	mov	r0, r1
3000331c:	e1a01003 	mov	r1, r3
30003320:	ebffff66 	bl	300030c0 <fb_put_pixel>
30003324:	e51b2018 	ldr	r2, [fp, #-24]
30003328:	e51b300c 	ldr	r3, [fp, #-12]
3000332c:	e0631002 	rsb	r1, r3, r2
30003330:	e51b201c 	ldr	r2, [fp, #-28]
30003334:	e51b3010 	ldr	r3, [fp, #-16]
30003338:	e0823003 	add	r3, r2, r3
3000333c:	e51b2024 	ldr	r2, [fp, #-36]
30003340:	e1a00001 	mov	r0, r1
30003344:	e1a01003 	mov	r1, r3
30003348:	ebffff5c 	bl	300030c0 <fb_put_pixel>
3000334c:	e51b3010 	ldr	r3, [fp, #-16]
30003350:	e2833001 	add	r3, r3, #1	; 0x1
30003354:	e50b3010 	str	r3, [fp, #-16]
30003358:	e51b2010 	ldr	r2, [fp, #-16]
3000335c:	e51b3010 	ldr	r3, [fp, #-16]
30003360:	e0010293 	mul	r1, r3, r2
30003364:	e51b200c 	ldr	r2, [fp, #-12]
30003368:	e51b300c 	ldr	r3, [fp, #-12]
3000336c:	e0030392 	mul	r3, r2, r3
30003370:	e0811003 	add	r1, r1, r3
30003374:	e51b2020 	ldr	r2, [fp, #-32]
30003378:	e51b3020 	ldr	r3, [fp, #-32]
3000337c:	e0030392 	mul	r3, r2, r3
30003380:	e0633001 	rsb	r3, r3, r1
30003384:	e50b3008 	str	r3, [fp, #-8]
30003388:	e51b3008 	ldr	r3, [fp, #-8]
3000338c:	e3530000 	cmp	r3, #0	; 0x0
30003390:	da000005 	ble	300033ac <draw_circle+0x1d0>
30003394:	e51b300c 	ldr	r3, [fp, #-12]
30003398:	e2433001 	sub	r3, r3, #1	; 0x1
3000339c:	e50b300c 	str	r3, [fp, #-12]
300033a0:	e51b3010 	ldr	r3, [fp, #-16]
300033a4:	e2433001 	sub	r3, r3, #1	; 0x1
300033a8:	e50b3010 	str	r3, [fp, #-16]
300033ac:	e51b200c 	ldr	r2, [fp, #-12]
300033b0:	e51b300c 	ldr	r3, [fp, #-12]
300033b4:	e0010293 	mul	r1, r3, r2
300033b8:	e1a03001 	mov	r3, r1
300033bc:	e1a02103 	lsl	r2, r3, #2
300033c0:	e1a03102 	lsl	r3, r2, #2
300033c4:	e0623003 	rsb	r3, r2, r3
300033c8:	e0613003 	rsb	r3, r1, r3
300033cc:	e1a03083 	lsl	r3, r3, #1
300033d0:	e1a01003 	mov	r1, r3
300033d4:	e51b2020 	ldr	r2, [fp, #-32]
300033d8:	e51b3020 	ldr	r3, [fp, #-32]
300033dc:	e0030392 	mul	r3, r2, r3
300033e0:	e1510003 	cmp	r1, r3
300033e4:	aaffff88 	bge	3000320c <draw_circle+0x30>
300033e8:	e24bd004 	sub	sp, fp, #4	; 0x4
300033ec:	e8bd4800 	pop	{fp, lr}
300033f0:	e12fff1e 	bx	lr

300033f4 <draw_line>:
300033f4:	e92d4800 	push	{fp, lr}
300033f8:	e28db004 	add	fp, sp, #4	; 0x4
300033fc:	e24dd020 	sub	sp, sp, #32	; 0x20
30003400:	e50b0018 	str	r0, [fp, #-24]
30003404:	e50b101c 	str	r1, [fp, #-28]
30003408:	e50b2020 	str	r2, [fp, #-32]
3000340c:	e50b3024 	str	r3, [fp, #-36]
30003410:	e51b2020 	ldr	r2, [fp, #-32]
30003414:	e51b3018 	ldr	r3, [fp, #-24]
30003418:	e0633002 	rsb	r3, r3, r2
3000341c:	e50b3010 	str	r3, [fp, #-16]
30003420:	e51b2024 	ldr	r2, [fp, #-36]
30003424:	e51b301c 	ldr	r3, [fp, #-28]
30003428:	e0633002 	rsb	r3, r3, r2
3000342c:	e50b300c 	str	r3, [fp, #-12]
30003430:	e51b3010 	ldr	r3, [fp, #-16]
30003434:	e3530000 	cmp	r3, #0	; 0x0
30003438:	ba00009d 	blt	300036b4 <draw_line+0x2c0>
3000343c:	e51b300c 	ldr	r3, [fp, #-12]
30003440:	e3530000 	cmp	r3, #0	; 0x0
30003444:	ba00004b 	blt	30003578 <draw_line+0x184>
30003448:	e51b2010 	ldr	r2, [fp, #-16]
3000344c:	e51b300c 	ldr	r3, [fp, #-12]
30003450:	e1520003 	cmp	r2, r3
30003454:	ba000023 	blt	300034e8 <draw_line+0xf4>
30003458:	e51b2010 	ldr	r2, [fp, #-16]
3000345c:	e1a03fa2 	lsr	r3, r2, #31
30003460:	e0833002 	add	r3, r3, r2
30003464:	e1a030c3 	asr	r3, r3, #1
30003468:	e1a02003 	mov	r2, r3
3000346c:	e51b300c 	ldr	r3, [fp, #-12]
30003470:	e0623003 	rsb	r3, r2, r3
30003474:	e50b3008 	str	r3, [fp, #-8]
30003478:	ea000015 	b	300034d4 <draw_line+0xe0>
3000347c:	e59b3004 	ldr	r3, [fp, #4]
30003480:	e51b0018 	ldr	r0, [fp, #-24]
30003484:	e51b101c 	ldr	r1, [fp, #-28]
30003488:	e1a02003 	mov	r2, r3
3000348c:	ebffff0b 	bl	300030c0 <fb_put_pixel>
30003490:	e51b3008 	ldr	r3, [fp, #-8]
30003494:	e3530000 	cmp	r3, #0	; 0x0
30003498:	da000006 	ble	300034b8 <draw_line+0xc4>
3000349c:	e51b301c 	ldr	r3, [fp, #-28]
300034a0:	e2833001 	add	r3, r3, #1	; 0x1
300034a4:	e50b301c 	str	r3, [fp, #-28]
300034a8:	e51b2008 	ldr	r2, [fp, #-8]
300034ac:	e51b3010 	ldr	r3, [fp, #-16]
300034b0:	e0633002 	rsb	r3, r3, r2
300034b4:	e50b3008 	str	r3, [fp, #-8]
300034b8:	e51b3018 	ldr	r3, [fp, #-24]
300034bc:	e2833001 	add	r3, r3, #1	; 0x1
300034c0:	e50b3018 	str	r3, [fp, #-24]
300034c4:	e51b2008 	ldr	r2, [fp, #-8]
300034c8:	e51b300c 	ldr	r3, [fp, #-12]
300034cc:	e0823003 	add	r3, r2, r3
300034d0:	e50b3008 	str	r3, [fp, #-8]
300034d4:	e51b2018 	ldr	r2, [fp, #-24]
300034d8:	e51b3020 	ldr	r3, [fp, #-32]
300034dc:	e1520003 	cmp	r2, r3
300034e0:	daffffe5 	ble	3000347c <draw_line+0x88>
300034e4:	ea000112 	b	30003934 <draw_line+0x540>
300034e8:	e51b200c 	ldr	r2, [fp, #-12]
300034ec:	e1a03fa2 	lsr	r3, r2, #31
300034f0:	e0833002 	add	r3, r3, r2
300034f4:	e1a030c3 	asr	r3, r3, #1
300034f8:	e1a02003 	mov	r2, r3
300034fc:	e51b3010 	ldr	r3, [fp, #-16]
30003500:	e0623003 	rsb	r3, r2, r3
30003504:	e50b3008 	str	r3, [fp, #-8]
30003508:	ea000015 	b	30003564 <draw_line+0x170>
3000350c:	e59b3004 	ldr	r3, [fp, #4]
30003510:	e51b0018 	ldr	r0, [fp, #-24]
30003514:	e51b101c 	ldr	r1, [fp, #-28]
30003518:	e1a02003 	mov	r2, r3
3000351c:	ebfffee7 	bl	300030c0 <fb_put_pixel>
30003520:	e51b3008 	ldr	r3, [fp, #-8]
30003524:	e3530000 	cmp	r3, #0	; 0x0
30003528:	da000006 	ble	30003548 <draw_line+0x154>
3000352c:	e51b3018 	ldr	r3, [fp, #-24]
30003530:	e2833001 	add	r3, r3, #1	; 0x1
30003534:	e50b3018 	str	r3, [fp, #-24]
30003538:	e51b2008 	ldr	r2, [fp, #-8]
3000353c:	e51b300c 	ldr	r3, [fp, #-12]
30003540:	e0633002 	rsb	r3, r3, r2
30003544:	e50b3008 	str	r3, [fp, #-8]
30003548:	e51b301c 	ldr	r3, [fp, #-28]
3000354c:	e2833001 	add	r3, r3, #1	; 0x1
30003550:	e50b301c 	str	r3, [fp, #-28]
30003554:	e51b2008 	ldr	r2, [fp, #-8]
30003558:	e51b3010 	ldr	r3, [fp, #-16]
3000355c:	e0823003 	add	r3, r2, r3
30003560:	e50b3008 	str	r3, [fp, #-8]
30003564:	e51b201c 	ldr	r2, [fp, #-28]
30003568:	e51b3024 	ldr	r3, [fp, #-36]
3000356c:	e1520003 	cmp	r2, r3
30003570:	daffffe5 	ble	3000350c <draw_line+0x118>
30003574:	ea0000ee 	b	30003934 <draw_line+0x540>
30003578:	e51b300c 	ldr	r3, [fp, #-12]
3000357c:	e2633000 	rsb	r3, r3, #0	; 0x0
30003580:	e50b300c 	str	r3, [fp, #-12]
30003584:	e51b2010 	ldr	r2, [fp, #-16]
30003588:	e51b300c 	ldr	r3, [fp, #-12]
3000358c:	e1520003 	cmp	r2, r3
30003590:	ba000023 	blt	30003624 <draw_line+0x230>
30003594:	e51b2010 	ldr	r2, [fp, #-16]
30003598:	e1a03fa2 	lsr	r3, r2, #31
3000359c:	e0833002 	add	r3, r3, r2
300035a0:	e1a030c3 	asr	r3, r3, #1
300035a4:	e1a02003 	mov	r2, r3
300035a8:	e51b300c 	ldr	r3, [fp, #-12]
300035ac:	e0623003 	rsb	r3, r2, r3
300035b0:	e50b3008 	str	r3, [fp, #-8]
300035b4:	ea000015 	b	30003610 <draw_line+0x21c>
300035b8:	e59b3004 	ldr	r3, [fp, #4]
300035bc:	e51b0018 	ldr	r0, [fp, #-24]
300035c0:	e51b101c 	ldr	r1, [fp, #-28]
300035c4:	e1a02003 	mov	r2, r3
300035c8:	ebfffebc 	bl	300030c0 <fb_put_pixel>
300035cc:	e51b3008 	ldr	r3, [fp, #-8]
300035d0:	e3530000 	cmp	r3, #0	; 0x0
300035d4:	da000006 	ble	300035f4 <draw_line+0x200>
300035d8:	e51b301c 	ldr	r3, [fp, #-28]
300035dc:	e2433001 	sub	r3, r3, #1	; 0x1
300035e0:	e50b301c 	str	r3, [fp, #-28]
300035e4:	e51b2008 	ldr	r2, [fp, #-8]
300035e8:	e51b3010 	ldr	r3, [fp, #-16]
300035ec:	e0633002 	rsb	r3, r3, r2
300035f0:	e50b3008 	str	r3, [fp, #-8]
300035f4:	e51b3018 	ldr	r3, [fp, #-24]
300035f8:	e2833001 	add	r3, r3, #1	; 0x1
300035fc:	e50b3018 	str	r3, [fp, #-24]
30003600:	e51b2008 	ldr	r2, [fp, #-8]
30003604:	e51b300c 	ldr	r3, [fp, #-12]
30003608:	e0823003 	add	r3, r2, r3
3000360c:	e50b3008 	str	r3, [fp, #-8]
30003610:	e51b2018 	ldr	r2, [fp, #-24]
30003614:	e51b3020 	ldr	r3, [fp, #-32]
30003618:	e1520003 	cmp	r2, r3
3000361c:	daffffe5 	ble	300035b8 <draw_line+0x1c4>
30003620:	ea0000c3 	b	30003934 <draw_line+0x540>
30003624:	e51b200c 	ldr	r2, [fp, #-12]
30003628:	e1a03fa2 	lsr	r3, r2, #31
3000362c:	e0833002 	add	r3, r3, r2
30003630:	e1a030c3 	asr	r3, r3, #1
30003634:	e1a02003 	mov	r2, r3
30003638:	e51b3010 	ldr	r3, [fp, #-16]
3000363c:	e0623003 	rsb	r3, r2, r3
30003640:	e50b3008 	str	r3, [fp, #-8]
30003644:	ea000015 	b	300036a0 <draw_line+0x2ac>
30003648:	e59b3004 	ldr	r3, [fp, #4]
3000364c:	e51b0018 	ldr	r0, [fp, #-24]
30003650:	e51b101c 	ldr	r1, [fp, #-28]
30003654:	e1a02003 	mov	r2, r3
30003658:	ebfffe98 	bl	300030c0 <fb_put_pixel>
3000365c:	e51b3008 	ldr	r3, [fp, #-8]
30003660:	e3530000 	cmp	r3, #0	; 0x0
30003664:	da000006 	ble	30003684 <draw_line+0x290>
30003668:	e51b3018 	ldr	r3, [fp, #-24]
3000366c:	e2833001 	add	r3, r3, #1	; 0x1
30003670:	e50b3018 	str	r3, [fp, #-24]
30003674:	e51b2008 	ldr	r2, [fp, #-8]
30003678:	e51b300c 	ldr	r3, [fp, #-12]
3000367c:	e0633002 	rsb	r3, r3, r2
30003680:	e50b3008 	str	r3, [fp, #-8]
30003684:	e51b301c 	ldr	r3, [fp, #-28]
30003688:	e2433001 	sub	r3, r3, #1	; 0x1
3000368c:	e50b301c 	str	r3, [fp, #-28]
30003690:	e51b2008 	ldr	r2, [fp, #-8]
30003694:	e51b3010 	ldr	r3, [fp, #-16]
30003698:	e0823003 	add	r3, r2, r3
3000369c:	e50b3008 	str	r3, [fp, #-8]
300036a0:	e51b201c 	ldr	r2, [fp, #-28]
300036a4:	e51b3024 	ldr	r3, [fp, #-36]
300036a8:	e1520003 	cmp	r2, r3
300036ac:	aaffffe5 	bge	30003648 <draw_line+0x254>
300036b0:	ea00009f 	b	30003934 <draw_line+0x540>
300036b4:	e51b3010 	ldr	r3, [fp, #-16]
300036b8:	e2633000 	rsb	r3, r3, #0	; 0x0
300036bc:	e50b3010 	str	r3, [fp, #-16]
300036c0:	e51b300c 	ldr	r3, [fp, #-12]
300036c4:	e3530000 	cmp	r3, #0	; 0x0
300036c8:	ba00004b 	blt	300037fc <draw_line+0x408>
300036cc:	e51b2010 	ldr	r2, [fp, #-16]
300036d0:	e51b300c 	ldr	r3, [fp, #-12]
300036d4:	e1520003 	cmp	r2, r3
300036d8:	ba000023 	blt	3000376c <draw_line+0x378>
300036dc:	e51b2010 	ldr	r2, [fp, #-16]
300036e0:	e1a03fa2 	lsr	r3, r2, #31
300036e4:	e0833002 	add	r3, r3, r2
300036e8:	e1a030c3 	asr	r3, r3, #1
300036ec:	e1a02003 	mov	r2, r3
300036f0:	e51b300c 	ldr	r3, [fp, #-12]
300036f4:	e0623003 	rsb	r3, r2, r3
300036f8:	e50b3008 	str	r3, [fp, #-8]
300036fc:	ea000015 	b	30003758 <draw_line+0x364>
30003700:	e59b3004 	ldr	r3, [fp, #4]
30003704:	e51b0018 	ldr	r0, [fp, #-24]
30003708:	e51b101c 	ldr	r1, [fp, #-28]
3000370c:	e1a02003 	mov	r2, r3
30003710:	ebfffe6a 	bl	300030c0 <fb_put_pixel>
30003714:	e51b3008 	ldr	r3, [fp, #-8]
30003718:	e3530000 	cmp	r3, #0	; 0x0
3000371c:	da000006 	ble	3000373c <draw_line+0x348>
30003720:	e51b301c 	ldr	r3, [fp, #-28]
30003724:	e2833001 	add	r3, r3, #1	; 0x1
30003728:	e50b301c 	str	r3, [fp, #-28]
3000372c:	e51b2008 	ldr	r2, [fp, #-8]
30003730:	e51b3010 	ldr	r3, [fp, #-16]
30003734:	e0633002 	rsb	r3, r3, r2
30003738:	e50b3008 	str	r3, [fp, #-8]
3000373c:	e51b3018 	ldr	r3, [fp, #-24]
30003740:	e2433001 	sub	r3, r3, #1	; 0x1
30003744:	e50b3018 	str	r3, [fp, #-24]
30003748:	e51b2008 	ldr	r2, [fp, #-8]
3000374c:	e51b300c 	ldr	r3, [fp, #-12]
30003750:	e0823003 	add	r3, r2, r3
30003754:	e50b3008 	str	r3, [fp, #-8]
30003758:	e51b2018 	ldr	r2, [fp, #-24]
3000375c:	e51b3020 	ldr	r3, [fp, #-32]
30003760:	e1520003 	cmp	r2, r3
30003764:	aaffffe5 	bge	30003700 <draw_line+0x30c>
30003768:	ea000071 	b	30003934 <draw_line+0x540>
3000376c:	e51b200c 	ldr	r2, [fp, #-12]
30003770:	e1a03fa2 	lsr	r3, r2, #31
30003774:	e0833002 	add	r3, r3, r2
30003778:	e1a030c3 	asr	r3, r3, #1
3000377c:	e1a02003 	mov	r2, r3
30003780:	e51b3010 	ldr	r3, [fp, #-16]
30003784:	e0623003 	rsb	r3, r2, r3
30003788:	e50b3008 	str	r3, [fp, #-8]
3000378c:	ea000015 	b	300037e8 <draw_line+0x3f4>
30003790:	e59b3004 	ldr	r3, [fp, #4]
30003794:	e51b0018 	ldr	r0, [fp, #-24]
30003798:	e51b101c 	ldr	r1, [fp, #-28]
3000379c:	e1a02003 	mov	r2, r3
300037a0:	ebfffe46 	bl	300030c0 <fb_put_pixel>
300037a4:	e51b3008 	ldr	r3, [fp, #-8]
300037a8:	e3530000 	cmp	r3, #0	; 0x0
300037ac:	da000006 	ble	300037cc <draw_line+0x3d8>
300037b0:	e51b3018 	ldr	r3, [fp, #-24]
300037b4:	e2433001 	sub	r3, r3, #1	; 0x1
300037b8:	e50b3018 	str	r3, [fp, #-24]
300037bc:	e51b2008 	ldr	r2, [fp, #-8]
300037c0:	e51b300c 	ldr	r3, [fp, #-12]
300037c4:	e0633002 	rsb	r3, r3, r2
300037c8:	e50b3008 	str	r3, [fp, #-8]
300037cc:	e51b301c 	ldr	r3, [fp, #-28]
300037d0:	e2833001 	add	r3, r3, #1	; 0x1
300037d4:	e50b301c 	str	r3, [fp, #-28]
300037d8:	e51b2008 	ldr	r2, [fp, #-8]
300037dc:	e51b3010 	ldr	r3, [fp, #-16]
300037e0:	e0823003 	add	r3, r2, r3
300037e4:	e50b3008 	str	r3, [fp, #-8]
300037e8:	e51b201c 	ldr	r2, [fp, #-28]
300037ec:	e51b3024 	ldr	r3, [fp, #-36]
300037f0:	e1520003 	cmp	r2, r3
300037f4:	daffffe5 	ble	30003790 <draw_line+0x39c>
300037f8:	ea00004d 	b	30003934 <draw_line+0x540>
300037fc:	e51b300c 	ldr	r3, [fp, #-12]
30003800:	e2633000 	rsb	r3, r3, #0	; 0x0
30003804:	e50b300c 	str	r3, [fp, #-12]
30003808:	e51b2010 	ldr	r2, [fp, #-16]
3000380c:	e51b300c 	ldr	r3, [fp, #-12]
30003810:	e1520003 	cmp	r2, r3
30003814:	ba000023 	blt	300038a8 <draw_line+0x4b4>
30003818:	e51b2010 	ldr	r2, [fp, #-16]
3000381c:	e1a03fa2 	lsr	r3, r2, #31
30003820:	e0833002 	add	r3, r3, r2
30003824:	e1a030c3 	asr	r3, r3, #1
30003828:	e1a02003 	mov	r2, r3
3000382c:	e51b300c 	ldr	r3, [fp, #-12]
30003830:	e0623003 	rsb	r3, r2, r3
30003834:	e50b3008 	str	r3, [fp, #-8]
30003838:	ea000015 	b	30003894 <draw_line+0x4a0>
3000383c:	e59b3004 	ldr	r3, [fp, #4]
30003840:	e51b0018 	ldr	r0, [fp, #-24]
30003844:	e51b101c 	ldr	r1, [fp, #-28]
30003848:	e1a02003 	mov	r2, r3
3000384c:	ebfffe1b 	bl	300030c0 <fb_put_pixel>
30003850:	e51b3008 	ldr	r3, [fp, #-8]
30003854:	e3530000 	cmp	r3, #0	; 0x0
30003858:	da000006 	ble	30003878 <draw_line+0x484>
3000385c:	e51b301c 	ldr	r3, [fp, #-28]
30003860:	e2433001 	sub	r3, r3, #1	; 0x1
30003864:	e50b301c 	str	r3, [fp, #-28]
30003868:	e51b2008 	ldr	r2, [fp, #-8]
3000386c:	e51b3010 	ldr	r3, [fp, #-16]
30003870:	e0633002 	rsb	r3, r3, r2
30003874:	e50b3008 	str	r3, [fp, #-8]
30003878:	e51b3018 	ldr	r3, [fp, #-24]
3000387c:	e2433001 	sub	r3, r3, #1	; 0x1
30003880:	e50b3018 	str	r3, [fp, #-24]
30003884:	e51b2008 	ldr	r2, [fp, #-8]
30003888:	e51b300c 	ldr	r3, [fp, #-12]
3000388c:	e0823003 	add	r3, r2, r3
30003890:	e50b3008 	str	r3, [fp, #-8]
30003894:	e51b2018 	ldr	r2, [fp, #-24]
30003898:	e51b3020 	ldr	r3, [fp, #-32]
3000389c:	e1520003 	cmp	r2, r3
300038a0:	aaffffe5 	bge	3000383c <draw_line+0x448>
300038a4:	ea000022 	b	30003934 <draw_line+0x540>
300038a8:	e51b200c 	ldr	r2, [fp, #-12]
300038ac:	e1a03fa2 	lsr	r3, r2, #31
300038b0:	e0833002 	add	r3, r3, r2
300038b4:	e1a030c3 	asr	r3, r3, #1
300038b8:	e1a02003 	mov	r2, r3
300038bc:	e51b3010 	ldr	r3, [fp, #-16]
300038c0:	e0623003 	rsb	r3, r2, r3
300038c4:	e50b3008 	str	r3, [fp, #-8]
300038c8:	ea000015 	b	30003924 <draw_line+0x530>
300038cc:	e59b3004 	ldr	r3, [fp, #4]
300038d0:	e51b0018 	ldr	r0, [fp, #-24]
300038d4:	e51b101c 	ldr	r1, [fp, #-28]
300038d8:	e1a02003 	mov	r2, r3
300038dc:	ebfffdf7 	bl	300030c0 <fb_put_pixel>
300038e0:	e51b3008 	ldr	r3, [fp, #-8]
300038e4:	e3530000 	cmp	r3, #0	; 0x0
300038e8:	da000006 	ble	30003908 <draw_line+0x514>
300038ec:	e51b3018 	ldr	r3, [fp, #-24]
300038f0:	e2433001 	sub	r3, r3, #1	; 0x1
300038f4:	e50b3018 	str	r3, [fp, #-24]
300038f8:	e51b2008 	ldr	r2, [fp, #-8]
300038fc:	e51b300c 	ldr	r3, [fp, #-12]
30003900:	e0633002 	rsb	r3, r3, r2
30003904:	e50b3008 	str	r3, [fp, #-8]
30003908:	e51b301c 	ldr	r3, [fp, #-28]
3000390c:	e2433001 	sub	r3, r3, #1	; 0x1
30003910:	e50b301c 	str	r3, [fp, #-28]
30003914:	e51b2008 	ldr	r2, [fp, #-8]
30003918:	e51b3010 	ldr	r3, [fp, #-16]
3000391c:	e0823003 	add	r3, r2, r3
30003920:	e50b3008 	str	r3, [fp, #-8]
30003924:	e51b201c 	ldr	r2, [fp, #-28]
30003928:	e51b3024 	ldr	r3, [fp, #-36]
3000392c:	e1520003 	cmp	r2, r3
30003930:	aaffffe5 	bge	300038cc <draw_line+0x4d8>
30003934:	e24bd004 	sub	sp, fp, #4	; 0x4
30003938:	e8bd4800 	pop	{fp, lr}
3000393c:	e12fff1e 	bx	lr

30003940 <register_lcd>:
30003940:	e52db004 	push	{fp}		; (str fp, [sp, #-4]!)
30003944:	e28db000 	add	fp, sp, #0	; 0x0
30003948:	e24dd014 	sub	sp, sp, #20	; 0x14
3000394c:	e50b0010 	str	r0, [fp, #-16]
30003950:	e3a03000 	mov	r3, #0	; 0x0
30003954:	e50b3008 	str	r3, [fp, #-8]
30003958:	ea00000e 	b	30003998 <register_lcd+0x58>
3000395c:	e51b3008 	ldr	r3, [fp, #-8]
30003960:	e59f2058 	ldr	r2, [pc, #88]	; 300039c0 <register_lcd+0x80>
30003964:	e7923103 	ldr	r3, [r2, r3, lsl #2]
30003968:	e3530000 	cmp	r3, #0	; 0x0
3000396c:	1a000006 	bne	3000398c <register_lcd+0x4c>
30003970:	e51b1008 	ldr	r1, [fp, #-8]
30003974:	e59f2044 	ldr	r2, [pc, #68]	; 300039c0 <register_lcd+0x80>
30003978:	e51b3010 	ldr	r3, [fp, #-16]
3000397c:	e7823101 	str	r3, [r2, r1, lsl #2]
30003980:	e51b3008 	ldr	r3, [fp, #-8]
30003984:	e50b3014 	str	r3, [fp, #-20]
30003988:	ea000007 	b	300039ac <register_lcd+0x6c>
3000398c:	e51b3008 	ldr	r3, [fp, #-8]
30003990:	e2833001 	add	r3, r3, #1	; 0x1
30003994:	e50b3008 	str	r3, [fp, #-8]
30003998:	e51b3008 	ldr	r3, [fp, #-8]
3000399c:	e3530009 	cmp	r3, #9	; 0x9
300039a0:	daffffed 	ble	3000395c <register_lcd+0x1c>
300039a4:	e3e03000 	mvn	r3, #0	; 0x0
300039a8:	e50b3014 	str	r3, [fp, #-20]
300039ac:	e51b3014 	ldr	r3, [fp, #-20]
300039b0:	e1a00003 	mov	r0, r3
300039b4:	e28bd000 	add	sp, fp, #0	; 0x0
300039b8:	e8bd0800 	pop	{fp}
300039bc:	e12fff1e 	bx	lr
300039c0:	30006b24 	.word	0x30006b24

300039c4 <select_lcd>:
300039c4:	e92d4800 	push	{fp, lr}
300039c8:	e28db004 	add	fp, sp, #4	; 0x4
300039cc:	e24dd010 	sub	sp, sp, #16	; 0x10
300039d0:	e50b0010 	str	r0, [fp, #-16]
300039d4:	e3a03000 	mov	r3, #0	; 0x0
300039d8:	e50b3008 	str	r3, [fp, #-8]
300039dc:	ea000019 	b	30003a48 <select_lcd+0x84>
300039e0:	e51b3008 	ldr	r3, [fp, #-8]
300039e4:	e59f2084 	ldr	r2, [pc, #132]	; 30003a70 <select_lcd+0xac>
300039e8:	e7923103 	ldr	r3, [r2, r3, lsl #2]
300039ec:	e3530000 	cmp	r3, #0	; 0x0
300039f0:	0a000011 	beq	30003a3c <select_lcd+0x78>
300039f4:	e51b2008 	ldr	r2, [fp, #-8]
300039f8:	e59f3070 	ldr	r3, [pc, #112]	; 30003a70 <select_lcd+0xac>
300039fc:	e7933102 	ldr	r3, [r3, r2, lsl #2]
30003a00:	e5933000 	ldr	r3, [r3]
30003a04:	e1a00003 	mov	r0, r3
30003a08:	e51b1010 	ldr	r1, [fp, #-16]
30003a0c:	ebfffbcc 	bl	30002944 <strcmp>
30003a10:	e1a03000 	mov	r3, r0
30003a14:	e3530000 	cmp	r3, #0	; 0x0
30003a18:	1a000007 	bne	30003a3c <select_lcd+0x78>
30003a1c:	e51b2008 	ldr	r2, [fp, #-8]
30003a20:	e59f3048 	ldr	r3, [pc, #72]	; 30003a70 <select_lcd+0xac>
30003a24:	e7932102 	ldr	r2, [r3, r2, lsl #2]
30003a28:	e59f3044 	ldr	r3, [pc, #68]	; 30003a74 <select_lcd+0xb0>
30003a2c:	e5832000 	str	r2, [r3]
30003a30:	e51b3008 	ldr	r3, [fp, #-8]
30003a34:	e50b3014 	str	r3, [fp, #-20]
30003a38:	ea000007 	b	30003a5c <select_lcd+0x98>
30003a3c:	e51b3008 	ldr	r3, [fp, #-8]
30003a40:	e2833001 	add	r3, r3, #1	; 0x1
30003a44:	e50b3008 	str	r3, [fp, #-8]
30003a48:	e51b3008 	ldr	r3, [fp, #-8]
30003a4c:	e3530009 	cmp	r3, #9	; 0x9
30003a50:	daffffe2 	ble	300039e0 <select_lcd+0x1c>
30003a54:	e3e03000 	mvn	r3, #0	; 0x0
30003a58:	e50b3014 	str	r3, [fp, #-20]
30003a5c:	e51b3014 	ldr	r3, [fp, #-20]
30003a60:	e1a00003 	mov	r0, r3
30003a64:	e24bd004 	sub	sp, fp, #4	; 0x4
30003a68:	e8bd4800 	pop	{fp, lr}
30003a6c:	e12fff1e 	bx	lr
30003a70:	30006b24 	.word	0x30006b24
30003a74:	30006b4c 	.word	0x30006b4c

30003a78 <get_lcd_params>:
30003a78:	e52db004 	push	{fp}		; (str fp, [sp, #-4]!)
30003a7c:	e28db000 	add	fp, sp, #0	; 0x0
30003a80:	e24dd014 	sub	sp, sp, #20	; 0x14
30003a84:	e50b0008 	str	r0, [fp, #-8]
30003a88:	e50b100c 	str	r1, [fp, #-12]
30003a8c:	e50b2010 	str	r2, [fp, #-16]
30003a90:	e50b3014 	str	r3, [fp, #-20]
30003a94:	e59f3054 	ldr	r3, [pc, #84]	; 30003af0 <get_lcd_params+0x78>
30003a98:	e5933000 	ldr	r3, [r3]
30003a9c:	e5932044 	ldr	r2, [r3, #68]
30003aa0:	e51b3008 	ldr	r3, [fp, #-8]
30003aa4:	e5832000 	str	r2, [r3]
30003aa8:	e59f3040 	ldr	r3, [pc, #64]	; 30003af0 <get_lcd_params+0x78>
30003aac:	e5933000 	ldr	r3, [r3]
30003ab0:	e5932038 	ldr	r2, [r3, #56]
30003ab4:	e51b300c 	ldr	r3, [fp, #-12]
30003ab8:	e5832000 	str	r2, [r3]
30003abc:	e59f302c 	ldr	r3, [pc, #44]	; 30003af0 <get_lcd_params+0x78>
30003ac0:	e5933000 	ldr	r3, [r3]
30003ac4:	e593203c 	ldr	r2, [r3, #60]
30003ac8:	e51b3010 	ldr	r3, [fp, #-16]
30003acc:	e5832000 	str	r2, [r3]
30003ad0:	e59f3018 	ldr	r3, [pc, #24]	; 30003af0 <get_lcd_params+0x78>
30003ad4:	e5933000 	ldr	r3, [r3]
30003ad8:	e5932040 	ldr	r2, [r3, #64]
30003adc:	e51b3014 	ldr	r3, [fp, #-20]
30003ae0:	e5832000 	str	r2, [r3]
30003ae4:	e28bd000 	add	sp, fp, #0	; 0x0
30003ae8:	e8bd0800 	pop	{fp}
30003aec:	e12fff1e 	bx	lr
30003af0:	30006b4c 	.word	0x30006b4c

30003af4 <lcd_enable>:
30003af4:	e92d4800 	push	{fp, lr}
30003af8:	e28db004 	add	fp, sp, #4	; 0x4
30003afc:	eb00008f 	bl	30003d40 <lcd_controller_enable>
30003b00:	e24bd004 	sub	sp, fp, #4	; 0x4
30003b04:	e8bd4800 	pop	{fp, lr}
30003b08:	e12fff1e 	bx	lr

30003b0c <lcd_disable>:
30003b0c:	e92d4800 	push	{fp, lr}
30003b10:	e28db004 	add	fp, sp, #4	; 0x4
30003b14:	eb000098 	bl	30003d7c <lcd_controller_disable>
30003b18:	e24bd004 	sub	sp, fp, #4	; 0x4
30003b1c:	e8bd4800 	pop	{fp, lr}
30003b20:	e12fff1e 	bx	lr

30003b24 <lcd_init>:
30003b24:	e92d4800 	push	{fp, lr}
30003b28:	e28db004 	add	fp, sp, #4	; 0x4
30003b2c:	e24dd008 	sub	sp, sp, #8	; 0x8
30003b30:	eb00000e 	bl	30003b70 <lcd_4_3_add>
30003b34:	eb00009f 	bl	30003db8 <lcd_contoller_add>
30003b38:	e59f0024 	ldr	r0, [pc, #36]	; 30003b64 <lcd_init+0x40>
30003b3c:	ebffffa0 	bl	300039c4 <select_lcd>
30003b40:	e59f0020 	ldr	r0, [pc, #32]	; 30003b68 <lcd_init+0x44>
30003b44:	eb000032 	bl	30003c14 <select_lcd_controller>
30003b48:	e59f301c 	ldr	r3, [pc, #28]	; 30003b6c <lcd_init+0x48>
30003b4c:	e5933000 	ldr	r3, [r3]
30003b50:	e1a00003 	mov	r0, r3
30003b54:	eb00005b 	bl	30003cc8 <lcd_controller_init>
30003b58:	e24bd004 	sub	sp, fp, #4	; 0x4
30003b5c:	e8bd4800 	pop	{fp, lr}
30003b60:	e12fff1e 	bx	lr
30003b64:	30005948 	.word	0x30005948
30003b68:	30005950 	.word	0x30005950
30003b6c:	30006b4c 	.word	0x30006b4c

30003b70 <lcd_4_3_add>:
30003b70:	e92d4800 	push	{fp, lr}
30003b74:	e28db004 	add	fp, sp, #4	; 0x4
30003b78:	e59f000c 	ldr	r0, [pc, #12]	; 30003b8c <lcd_4_3_add+0x1c>
30003b7c:	ebffff6f 	bl	30003940 <register_lcd>
30003b80:	e24bd004 	sub	sp, fp, #4	; 0x4
30003b84:	e8bd4800 	pop	{fp, lr}
30003b88:	e12fff1e 	bx	lr
30003b8c:	30006aa0 	.word	0x30006aa0

30003b90 <register_lcd_controller>:
30003b90:	e52db004 	push	{fp}		; (str fp, [sp, #-4]!)
30003b94:	e28db000 	add	fp, sp, #0	; 0x0
30003b98:	e24dd014 	sub	sp, sp, #20	; 0x14
30003b9c:	e50b0010 	str	r0, [fp, #-16]
30003ba0:	e3a03000 	mov	r3, #0	; 0x0
30003ba4:	e50b3008 	str	r3, [fp, #-8]
30003ba8:	ea00000e 	b	30003be8 <register_lcd_controller+0x58>
30003bac:	e51b3008 	ldr	r3, [fp, #-8]
30003bb0:	e59f2058 	ldr	r2, [pc, #88]	; 30003c10 <register_lcd_controller+0x80>
30003bb4:	e7923103 	ldr	r3, [r2, r3, lsl #2]
30003bb8:	e3530000 	cmp	r3, #0	; 0x0
30003bbc:	1a000006 	bne	30003bdc <register_lcd_controller+0x4c>
30003bc0:	e51b1008 	ldr	r1, [fp, #-8]
30003bc4:	e59f2044 	ldr	r2, [pc, #68]	; 30003c10 <register_lcd_controller+0x80>
30003bc8:	e51b3010 	ldr	r3, [fp, #-16]
30003bcc:	e7823101 	str	r3, [r2, r1, lsl #2]
30003bd0:	e51b3008 	ldr	r3, [fp, #-8]
30003bd4:	e50b3014 	str	r3, [fp, #-20]
30003bd8:	ea000007 	b	30003bfc <register_lcd_controller+0x6c>
30003bdc:	e51b3008 	ldr	r3, [fp, #-8]
30003be0:	e2833001 	add	r3, r3, #1	; 0x1
30003be4:	e50b3008 	str	r3, [fp, #-8]
30003be8:	e51b3008 	ldr	r3, [fp, #-8]
30003bec:	e3530009 	cmp	r3, #9	; 0x9
30003bf0:	daffffed 	ble	30003bac <register_lcd_controller+0x1c>
30003bf4:	e3e03000 	mvn	r3, #0	; 0x0
30003bf8:	e50b3014 	str	r3, [fp, #-20]
30003bfc:	e51b3014 	ldr	r3, [fp, #-20]
30003c00:	e1a00003 	mov	r0, r3
30003c04:	e28bd000 	add	sp, fp, #0	; 0x0
30003c08:	e8bd0800 	pop	{fp}
30003c0c:	e12fff1e 	bx	lr
30003c10:	30006b50 	.word	0x30006b50

30003c14 <select_lcd_controller>:
30003c14:	e92d4800 	push	{fp, lr}
30003c18:	e28db004 	add	fp, sp, #4	; 0x4
30003c1c:	e24dd010 	sub	sp, sp, #16	; 0x10
30003c20:	e50b0010 	str	r0, [fp, #-16]
30003c24:	e3a03000 	mov	r3, #0	; 0x0
30003c28:	e50b3008 	str	r3, [fp, #-8]
30003c2c:	ea000019 	b	30003c98 <select_lcd_controller+0x84>
30003c30:	e51b3008 	ldr	r3, [fp, #-8]
30003c34:	e59f2084 	ldr	r2, [pc, #132]	; 30003cc0 <select_lcd_controller+0xac>
30003c38:	e7923103 	ldr	r3, [r2, r3, lsl #2]
30003c3c:	e3530000 	cmp	r3, #0	; 0x0
30003c40:	0a000011 	beq	30003c8c <select_lcd_controller+0x78>
30003c44:	e51b2008 	ldr	r2, [fp, #-8]
30003c48:	e59f3070 	ldr	r3, [pc, #112]	; 30003cc0 <select_lcd_controller+0xac>
30003c4c:	e7933102 	ldr	r3, [r3, r2, lsl #2]
30003c50:	e5933000 	ldr	r3, [r3]
30003c54:	e1a00003 	mov	r0, r3
30003c58:	e51b1010 	ldr	r1, [fp, #-16]
30003c5c:	ebfffb38 	bl	30002944 <strcmp>
30003c60:	e1a03000 	mov	r3, r0
30003c64:	e3530000 	cmp	r3, #0	; 0x0
30003c68:	1a000007 	bne	30003c8c <select_lcd_controller+0x78>
30003c6c:	e51b2008 	ldr	r2, [fp, #-8]
30003c70:	e59f3048 	ldr	r3, [pc, #72]	; 30003cc0 <select_lcd_controller+0xac>
30003c74:	e7932102 	ldr	r2, [r3, r2, lsl #2]
30003c78:	e59f3044 	ldr	r3, [pc, #68]	; 30003cc4 <select_lcd_controller+0xb0>
30003c7c:	e5832000 	str	r2, [r3]
30003c80:	e51b3008 	ldr	r3, [fp, #-8]
30003c84:	e50b3014 	str	r3, [fp, #-20]
30003c88:	ea000007 	b	30003cac <select_lcd_controller+0x98>
30003c8c:	e51b3008 	ldr	r3, [fp, #-8]
30003c90:	e2833001 	add	r3, r3, #1	; 0x1
30003c94:	e50b3008 	str	r3, [fp, #-8]
30003c98:	e51b3008 	ldr	r3, [fp, #-8]
30003c9c:	e3530009 	cmp	r3, #9	; 0x9
30003ca0:	daffffe2 	ble	30003c30 <select_lcd_controller+0x1c>
30003ca4:	e3e03000 	mvn	r3, #0	; 0x0
30003ca8:	e50b3014 	str	r3, [fp, #-20]
30003cac:	e51b3014 	ldr	r3, [fp, #-20]
30003cb0:	e1a00003 	mov	r0, r3
30003cb4:	e24bd004 	sub	sp, fp, #4	; 0x4
30003cb8:	e8bd4800 	pop	{fp, lr}
30003cbc:	e12fff1e 	bx	lr
30003cc0:	30006b50 	.word	0x30006b50
30003cc4:	30006b78 	.word	0x30006b78

30003cc8 <lcd_controller_init>:
30003cc8:	e92d4800 	push	{fp, lr}
30003ccc:	e28db004 	add	fp, sp, #4	; 0x4
30003cd0:	e24dd008 	sub	sp, sp, #8	; 0x8
30003cd4:	e50b0008 	str	r0, [fp, #-8]
30003cd8:	e59f305c 	ldr	r3, [pc, #92]	; 30003d3c <lcd_controller_init+0x74>
30003cdc:	e5933000 	ldr	r3, [r3]
30003ce0:	e3530000 	cmp	r3, #0	; 0x0
30003ce4:	0a00000d 	beq	30003d20 <lcd_controller_init+0x58>
30003ce8:	e59f304c 	ldr	r3, [pc, #76]	; 30003d3c <lcd_controller_init+0x74>
30003cec:	e5933000 	ldr	r3, [r3]
30003cf0:	e5933004 	ldr	r3, [r3, #4]
30003cf4:	e51b0008 	ldr	r0, [fp, #-8]
30003cf8:	e1a0e00f 	mov	lr, pc
30003cfc:	e12fff13 	bx	r3
30003d00:	e59f3034 	ldr	r3, [pc, #52]	; 30003d3c <lcd_controller_init+0x74>
30003d04:	e5933000 	ldr	r3, [r3]
30003d08:	e5933010 	ldr	r3, [r3, #16]
30003d0c:	e1a0e00f 	mov	lr, pc
30003d10:	e12fff13 	bx	r3
30003d14:	e3a03000 	mov	r3, #0	; 0x0
30003d18:	e50b300c 	str	r3, [fp, #-12]
30003d1c:	ea000001 	b	30003d28 <lcd_controller_init+0x60>
30003d20:	e3e03000 	mvn	r3, #0	; 0x0
30003d24:	e50b300c 	str	r3, [fp, #-12]
30003d28:	e51b300c 	ldr	r3, [fp, #-12]
30003d2c:	e1a00003 	mov	r0, r3
30003d30:	e24bd004 	sub	sp, fp, #4	; 0x4
30003d34:	e8bd4800 	pop	{fp, lr}
30003d38:	e12fff1e 	bx	lr
30003d3c:	30006b78 	.word	0x30006b78

30003d40 <lcd_controller_enable>:
30003d40:	e92d4800 	push	{fp, lr}
30003d44:	e28db004 	add	fp, sp, #4	; 0x4
30003d48:	e59f3028 	ldr	r3, [pc, #40]	; 30003d78 <lcd_controller_enable+0x38>
30003d4c:	e5933000 	ldr	r3, [r3]
30003d50:	e3530000 	cmp	r3, #0	; 0x0
30003d54:	0a000004 	beq	30003d6c <lcd_controller_enable+0x2c>
30003d58:	e59f3018 	ldr	r3, [pc, #24]	; 30003d78 <lcd_controller_enable+0x38>
30003d5c:	e5933000 	ldr	r3, [r3]
30003d60:	e5933008 	ldr	r3, [r3, #8]
30003d64:	e1a0e00f 	mov	lr, pc
30003d68:	e12fff13 	bx	r3
30003d6c:	e24bd004 	sub	sp, fp, #4	; 0x4
30003d70:	e8bd4800 	pop	{fp, lr}
30003d74:	e12fff1e 	bx	lr
30003d78:	30006b78 	.word	0x30006b78

30003d7c <lcd_controller_disable>:
30003d7c:	e92d4800 	push	{fp, lr}
30003d80:	e28db004 	add	fp, sp, #4	; 0x4
30003d84:	e59f3028 	ldr	r3, [pc, #40]	; 30003db4 <lcd_controller_disable+0x38>
30003d88:	e5933000 	ldr	r3, [r3]
30003d8c:	e3530000 	cmp	r3, #0	; 0x0
30003d90:	0a000004 	beq	30003da8 <lcd_controller_disable+0x2c>
30003d94:	e59f3018 	ldr	r3, [pc, #24]	; 30003db4 <lcd_controller_disable+0x38>
30003d98:	e5933000 	ldr	r3, [r3]
30003d9c:	e593300c 	ldr	r3, [r3, #12]
30003da0:	e1a0e00f 	mov	lr, pc
30003da4:	e12fff13 	bx	r3
30003da8:	e24bd004 	sub	sp, fp, #4	; 0x4
30003dac:	e8bd4800 	pop	{fp, lr}
30003db0:	e12fff1e 	bx	lr
30003db4:	30006b78 	.word	0x30006b78

30003db8 <lcd_contoller_add>:
30003db8:	e92d4800 	push	{fp, lr}
30003dbc:	e28db004 	add	fp, sp, #4	; 0x4
30003dc0:	eb000324 	bl	30004a58 <s3c2440_lcd_contoller_add>
30003dc4:	e24bd004 	sub	sp, fp, #4	; 0x4
30003dc8:	e8bd4800 	pop	{fp, lr}
30003dcc:	e12fff1e 	bx	lr

30003dd0 <lcd_test>:
30003dd0:	e92d4810 	push	{r4, fp, lr}
30003dd4:	e28db008 	add	fp, sp, #8	; 0x8
30003dd8:	e24dd034 	sub	sp, sp, #52	; 0x34
30003ddc:	ebffff50 	bl	30003b24 <lcd_init>
30003de0:	ebffff43 	bl	30003af4 <lcd_enable>
30003de4:	e24b3024 	sub	r3, fp, #36	; 0x24
30003de8:	e24b2028 	sub	r2, fp, #40	; 0x28
30003dec:	e24bc02c 	sub	ip, fp, #44	; 0x2c
30003df0:	e24b4030 	sub	r4, fp, #48	; 0x30
30003df4:	e1a00003 	mov	r0, r3
30003df8:	e1a01002 	mov	r1, r2
30003dfc:	e1a0200c 	mov	r2, ip
30003e00:	e1a03004 	mov	r3, r4
30003e04:	ebffff1b 	bl	30003a78 <get_lcd_params>
30003e08:	ebfffc6f 	bl	30002fcc <fb_get_lcd_params>
30003e0c:	ebfffbe3 	bl	30002da0 <font_init>
30003e10:	e51b3030 	ldr	r3, [fp, #-48]
30003e14:	e3530008 	cmp	r3, #8	; 0x8
30003e18:	1a000070 	bne	30003fe0 <lcd_test+0x210>
30003e1c:	e51b3024 	ldr	r3, [fp, #-36]
30003e20:	e50b3018 	str	r3, [fp, #-24]
30003e24:	e3a03000 	mov	r3, #0	; 0x0
30003e28:	e50b3020 	str	r3, [fp, #-32]
30003e2c:	ea000012 	b	30003e7c <lcd_test+0xac>
30003e30:	e3a03000 	mov	r3, #0	; 0x0
30003e34:	e50b301c 	str	r3, [fp, #-28]
30003e38:	ea000008 	b	30003e60 <lcd_test+0x90>
30003e3c:	e51b2018 	ldr	r2, [fp, #-24]
30003e40:	e3a0300c 	mov	r3, #12	; 0xc
30003e44:	e5c23000 	strb	r3, [r2]
30003e48:	e51b3018 	ldr	r3, [fp, #-24]
30003e4c:	e2833001 	add	r3, r3, #1	; 0x1
30003e50:	e50b3018 	str	r3, [fp, #-24]
30003e54:	e51b301c 	ldr	r3, [fp, #-28]
30003e58:	e2833001 	add	r3, r3, #1	; 0x1
30003e5c:	e50b301c 	str	r3, [fp, #-28]
30003e60:	e51b202c 	ldr	r2, [fp, #-44]
30003e64:	e51b301c 	ldr	r3, [fp, #-28]
30003e68:	e1530002 	cmp	r3, r2
30003e6c:	bafffff2 	blt	30003e3c <lcd_test+0x6c>
30003e70:	e51b3020 	ldr	r3, [fp, #-32]
30003e74:	e2833001 	add	r3, r3, #1	; 0x1
30003e78:	e50b3020 	str	r3, [fp, #-32]
30003e7c:	e51b2028 	ldr	r2, [fp, #-40]
30003e80:	e51b3020 	ldr	r3, [fp, #-32]
30003e84:	e1530002 	cmp	r3, r2
30003e88:	baffffe8 	blt	30003e30 <lcd_test+0x60>
30003e8c:	e51b3024 	ldr	r3, [fp, #-36]
30003e90:	e50b3018 	str	r3, [fp, #-24]
30003e94:	e3a03000 	mov	r3, #0	; 0x0
30003e98:	e50b3020 	str	r3, [fp, #-32]
30003e9c:	ea000012 	b	30003eec <lcd_test+0x11c>
30003ea0:	e3a03000 	mov	r3, #0	; 0x0
30003ea4:	e50b301c 	str	r3, [fp, #-28]
30003ea8:	ea000008 	b	30003ed0 <lcd_test+0x100>
30003eac:	e51b2018 	ldr	r2, [fp, #-24]
30003eb0:	e3a0302f 	mov	r3, #47	; 0x2f
30003eb4:	e5c23000 	strb	r3, [r2]
30003eb8:	e51b3018 	ldr	r3, [fp, #-24]
30003ebc:	e2833001 	add	r3, r3, #1	; 0x1
30003ec0:	e50b3018 	str	r3, [fp, #-24]
30003ec4:	e51b301c 	ldr	r3, [fp, #-28]
30003ec8:	e2833001 	add	r3, r3, #1	; 0x1
30003ecc:	e50b301c 	str	r3, [fp, #-28]
30003ed0:	e51b202c 	ldr	r2, [fp, #-44]
30003ed4:	e51b301c 	ldr	r3, [fp, #-28]
30003ed8:	e1530002 	cmp	r3, r2
30003edc:	bafffff2 	blt	30003eac <lcd_test+0xdc>
30003ee0:	e51b3020 	ldr	r3, [fp, #-32]
30003ee4:	e2833001 	add	r3, r3, #1	; 0x1
30003ee8:	e50b3020 	str	r3, [fp, #-32]
30003eec:	e51b2028 	ldr	r2, [fp, #-40]
30003ef0:	e51b3020 	ldr	r3, [fp, #-32]
30003ef4:	e1530002 	cmp	r3, r2
30003ef8:	baffffe8 	blt	30003ea0 <lcd_test+0xd0>
30003efc:	e51b3024 	ldr	r3, [fp, #-36]
30003f00:	e50b3018 	str	r3, [fp, #-24]
30003f04:	e3a03000 	mov	r3, #0	; 0x0
30003f08:	e50b3020 	str	r3, [fp, #-32]
30003f0c:	ea000012 	b	30003f5c <lcd_test+0x18c>
30003f10:	e3a03000 	mov	r3, #0	; 0x0
30003f14:	e50b301c 	str	r3, [fp, #-28]
30003f18:	ea000008 	b	30003f40 <lcd_test+0x170>
30003f1c:	e51b2018 	ldr	r2, [fp, #-24]
30003f20:	e3a03058 	mov	r3, #88	; 0x58
30003f24:	e5c23000 	strb	r3, [r2]
30003f28:	e51b3018 	ldr	r3, [fp, #-24]
30003f2c:	e2833001 	add	r3, r3, #1	; 0x1
30003f30:	e50b3018 	str	r3, [fp, #-24]
30003f34:	e51b301c 	ldr	r3, [fp, #-28]
30003f38:	e2833001 	add	r3, r3, #1	; 0x1
30003f3c:	e50b301c 	str	r3, [fp, #-28]
30003f40:	e51b202c 	ldr	r2, [fp, #-44]
30003f44:	e51b301c 	ldr	r3, [fp, #-28]
30003f48:	e1530002 	cmp	r3, r2
30003f4c:	bafffff2 	blt	30003f1c <lcd_test+0x14c>
30003f50:	e51b3020 	ldr	r3, [fp, #-32]
30003f54:	e2833001 	add	r3, r3, #1	; 0x1
30003f58:	e50b3020 	str	r3, [fp, #-32]
30003f5c:	e51b2028 	ldr	r2, [fp, #-40]
30003f60:	e51b3020 	ldr	r3, [fp, #-32]
30003f64:	e1530002 	cmp	r3, r2
30003f68:	baffffe8 	blt	30003f10 <lcd_test+0x140>
30003f6c:	e51b3024 	ldr	r3, [fp, #-36]
30003f70:	e50b3018 	str	r3, [fp, #-24]
30003f74:	e3a03000 	mov	r3, #0	; 0x0
30003f78:	e50b3020 	str	r3, [fp, #-32]
30003f7c:	ea000012 	b	30003fcc <lcd_test+0x1fc>
30003f80:	e3a03000 	mov	r3, #0	; 0x0
30003f84:	e50b301c 	str	r3, [fp, #-28]
30003f88:	ea000008 	b	30003fb0 <lcd_test+0x1e0>
30003f8c:	e51b2018 	ldr	r2, [fp, #-24]
30003f90:	e3a03000 	mov	r3, #0	; 0x0
30003f94:	e5c23000 	strb	r3, [r2]
30003f98:	e51b3018 	ldr	r3, [fp, #-24]
30003f9c:	e2833001 	add	r3, r3, #1	; 0x1
30003fa0:	e50b3018 	str	r3, [fp, #-24]
30003fa4:	e51b301c 	ldr	r3, [fp, #-28]
30003fa8:	e2833001 	add	r3, r3, #1	; 0x1
30003fac:	e50b301c 	str	r3, [fp, #-28]
30003fb0:	e51b202c 	ldr	r2, [fp, #-44]
30003fb4:	e51b301c 	ldr	r3, [fp, #-28]
30003fb8:	e1530002 	cmp	r3, r2
30003fbc:	bafffff2 	blt	30003f8c <lcd_test+0x1bc>
30003fc0:	e51b3020 	ldr	r3, [fp, #-32]
30003fc4:	e2833001 	add	r3, r3, #1	; 0x1
30003fc8:	e50b3020 	str	r3, [fp, #-32]
30003fcc:	e51b2028 	ldr	r2, [fp, #-40]
30003fd0:	e51b3020 	ldr	r3, [fp, #-32]
30003fd4:	e1530002 	cmp	r3, r2
30003fd8:	baffffe8 	blt	30003f80 <lcd_test+0x1b0>
30003fdc:	ea0000e6 	b	3000437c <lcd_test+0x5ac>
30003fe0:	e51b3030 	ldr	r3, [fp, #-48]
30003fe4:	e3530010 	cmp	r3, #16	; 0x10
30003fe8:	1a000070 	bne	300041b0 <lcd_test+0x3e0>
30003fec:	e51b3024 	ldr	r3, [fp, #-36]
30003ff0:	e50b3014 	str	r3, [fp, #-20]
30003ff4:	e3a03000 	mov	r3, #0	; 0x0
30003ff8:	e50b3020 	str	r3, [fp, #-32]
30003ffc:	ea000012 	b	3000404c <lcd_test+0x27c>
30004000:	e3a03000 	mov	r3, #0	; 0x0
30004004:	e50b301c 	str	r3, [fp, #-28]
30004008:	ea000008 	b	30004030 <lcd_test+0x260>
3000400c:	e51b2014 	ldr	r2, [fp, #-20]
30004010:	e3a03b3e 	mov	r3, #63488	; 0xf800
30004014:	e1c230b0 	strh	r3, [r2]
30004018:	e51b3014 	ldr	r3, [fp, #-20]
3000401c:	e2833002 	add	r3, r3, #2	; 0x2
30004020:	e50b3014 	str	r3, [fp, #-20]
30004024:	e51b301c 	ldr	r3, [fp, #-28]
30004028:	e2833001 	add	r3, r3, #1	; 0x1
3000402c:	e50b301c 	str	r3, [fp, #-28]
30004030:	e51b202c 	ldr	r2, [fp, #-44]
30004034:	e51b301c 	ldr	r3, [fp, #-28]
30004038:	e1530002 	cmp	r3, r2
3000403c:	bafffff2 	blt	3000400c <lcd_test+0x23c>
30004040:	e51b3020 	ldr	r3, [fp, #-32]
30004044:	e2833001 	add	r3, r3, #1	; 0x1
30004048:	e50b3020 	str	r3, [fp, #-32]
3000404c:	e51b2028 	ldr	r2, [fp, #-40]
30004050:	e51b3020 	ldr	r3, [fp, #-32]
30004054:	e1530002 	cmp	r3, r2
30004058:	baffffe8 	blt	30004000 <lcd_test+0x230>
3000405c:	e51b3024 	ldr	r3, [fp, #-36]
30004060:	e50b3014 	str	r3, [fp, #-20]
30004064:	e3a03000 	mov	r3, #0	; 0x0
30004068:	e50b3020 	str	r3, [fp, #-32]
3000406c:	ea000012 	b	300040bc <lcd_test+0x2ec>
30004070:	e3a03000 	mov	r3, #0	; 0x0
30004074:	e50b301c 	str	r3, [fp, #-28]
30004078:	ea000008 	b	300040a0 <lcd_test+0x2d0>
3000407c:	e51b2014 	ldr	r2, [fp, #-20]
30004080:	e3a03e7e 	mov	r3, #2016	; 0x7e0
30004084:	e1c230b0 	strh	r3, [r2]
30004088:	e51b3014 	ldr	r3, [fp, #-20]
3000408c:	e2833002 	add	r3, r3, #2	; 0x2
30004090:	e50b3014 	str	r3, [fp, #-20]
30004094:	e51b301c 	ldr	r3, [fp, #-28]
30004098:	e2833001 	add	r3, r3, #1	; 0x1
3000409c:	e50b301c 	str	r3, [fp, #-28]
300040a0:	e51b202c 	ldr	r2, [fp, #-44]
300040a4:	e51b301c 	ldr	r3, [fp, #-28]
300040a8:	e1530002 	cmp	r3, r2
300040ac:	bafffff2 	blt	3000407c <lcd_test+0x2ac>
300040b0:	e51b3020 	ldr	r3, [fp, #-32]
300040b4:	e2833001 	add	r3, r3, #1	; 0x1
300040b8:	e50b3020 	str	r3, [fp, #-32]
300040bc:	e51b2028 	ldr	r2, [fp, #-40]
300040c0:	e51b3020 	ldr	r3, [fp, #-32]
300040c4:	e1530002 	cmp	r3, r2
300040c8:	baffffe8 	blt	30004070 <lcd_test+0x2a0>
300040cc:	e51b3024 	ldr	r3, [fp, #-36]
300040d0:	e50b3014 	str	r3, [fp, #-20]
300040d4:	e3a03000 	mov	r3, #0	; 0x0
300040d8:	e50b3020 	str	r3, [fp, #-32]
300040dc:	ea000012 	b	3000412c <lcd_test+0x35c>
300040e0:	e3a03000 	mov	r3, #0	; 0x0
300040e4:	e50b301c 	str	r3, [fp, #-28]
300040e8:	ea000008 	b	30004110 <lcd_test+0x340>
300040ec:	e51b2014 	ldr	r2, [fp, #-20]
300040f0:	e3a0301f 	mov	r3, #31	; 0x1f
300040f4:	e1c230b0 	strh	r3, [r2]
300040f8:	e51b3014 	ldr	r3, [fp, #-20]
300040fc:	e2833002 	add	r3, r3, #2	; 0x2
30004100:	e50b3014 	str	r3, [fp, #-20]
30004104:	e51b301c 	ldr	r3, [fp, #-28]
30004108:	e2833001 	add	r3, r3, #1	; 0x1
3000410c:	e50b301c 	str	r3, [fp, #-28]
30004110:	e51b202c 	ldr	r2, [fp, #-44]
30004114:	e51b301c 	ldr	r3, [fp, #-28]
30004118:	e1530002 	cmp	r3, r2
3000411c:	bafffff2 	blt	300040ec <lcd_test+0x31c>
30004120:	e51b3020 	ldr	r3, [fp, #-32]
30004124:	e2833001 	add	r3, r3, #1	; 0x1
30004128:	e50b3020 	str	r3, [fp, #-32]
3000412c:	e51b2028 	ldr	r2, [fp, #-40]
30004130:	e51b3020 	ldr	r3, [fp, #-32]
30004134:	e1530002 	cmp	r3, r2
30004138:	baffffe8 	blt	300040e0 <lcd_test+0x310>
3000413c:	e51b3024 	ldr	r3, [fp, #-36]
30004140:	e50b3014 	str	r3, [fp, #-20]
30004144:	e3a03000 	mov	r3, #0	; 0x0
30004148:	e50b3020 	str	r3, [fp, #-32]
3000414c:	ea000012 	b	3000419c <lcd_test+0x3cc>
30004150:	e3a03000 	mov	r3, #0	; 0x0
30004154:	e50b301c 	str	r3, [fp, #-28]
30004158:	ea000008 	b	30004180 <lcd_test+0x3b0>
3000415c:	e51b2014 	ldr	r2, [fp, #-20]
30004160:	e3a03000 	mov	r3, #0	; 0x0
30004164:	e1c230b0 	strh	r3, [r2]
30004168:	e51b3014 	ldr	r3, [fp, #-20]
3000416c:	e2833002 	add	r3, r3, #2	; 0x2
30004170:	e50b3014 	str	r3, [fp, #-20]
30004174:	e51b301c 	ldr	r3, [fp, #-28]
30004178:	e2833001 	add	r3, r3, #1	; 0x1
3000417c:	e50b301c 	str	r3, [fp, #-28]
30004180:	e51b202c 	ldr	r2, [fp, #-44]
30004184:	e51b301c 	ldr	r3, [fp, #-28]
30004188:	e1530002 	cmp	r3, r2
3000418c:	bafffff2 	blt	3000415c <lcd_test+0x38c>
30004190:	e51b3020 	ldr	r3, [fp, #-32]
30004194:	e2833001 	add	r3, r3, #1	; 0x1
30004198:	e50b3020 	str	r3, [fp, #-32]
3000419c:	e51b2028 	ldr	r2, [fp, #-40]
300041a0:	e51b3020 	ldr	r3, [fp, #-32]
300041a4:	e1530002 	cmp	r3, r2
300041a8:	baffffe8 	blt	30004150 <lcd_test+0x380>
300041ac:	ea000072 	b	3000437c <lcd_test+0x5ac>
300041b0:	e51b3030 	ldr	r3, [fp, #-48]
300041b4:	e3530020 	cmp	r3, #32	; 0x20
300041b8:	1a00006f 	bne	3000437c <lcd_test+0x5ac>
300041bc:	e51b3024 	ldr	r3, [fp, #-36]
300041c0:	e50b3010 	str	r3, [fp, #-16]
300041c4:	e3a03000 	mov	r3, #0	; 0x0
300041c8:	e50b3020 	str	r3, [fp, #-32]
300041cc:	ea000012 	b	3000421c <lcd_test+0x44c>
300041d0:	e3a03000 	mov	r3, #0	; 0x0
300041d4:	e50b301c 	str	r3, [fp, #-28]
300041d8:	ea000008 	b	30004200 <lcd_test+0x430>
300041dc:	e51b2010 	ldr	r2, [fp, #-16]
300041e0:	e3a038ff 	mov	r3, #16711680	; 0xff0000
300041e4:	e5823000 	str	r3, [r2]
300041e8:	e51b3010 	ldr	r3, [fp, #-16]
300041ec:	e2833004 	add	r3, r3, #4	; 0x4
300041f0:	e50b3010 	str	r3, [fp, #-16]
300041f4:	e51b301c 	ldr	r3, [fp, #-28]
300041f8:	e2833001 	add	r3, r3, #1	; 0x1
300041fc:	e50b301c 	str	r3, [fp, #-28]
30004200:	e51b202c 	ldr	r2, [fp, #-44]
30004204:	e51b301c 	ldr	r3, [fp, #-28]
30004208:	e1530002 	cmp	r3, r2
3000420c:	bafffff2 	blt	300041dc <lcd_test+0x40c>
30004210:	e51b3020 	ldr	r3, [fp, #-32]
30004214:	e2833001 	add	r3, r3, #1	; 0x1
30004218:	e50b3020 	str	r3, [fp, #-32]
3000421c:	e51b2028 	ldr	r2, [fp, #-40]
30004220:	e51b3020 	ldr	r3, [fp, #-32]
30004224:	e1530002 	cmp	r3, r2
30004228:	baffffe8 	blt	300041d0 <lcd_test+0x400>
3000422c:	e51b3024 	ldr	r3, [fp, #-36]
30004230:	e50b3010 	str	r3, [fp, #-16]
30004234:	e3a03000 	mov	r3, #0	; 0x0
30004238:	e50b3020 	str	r3, [fp, #-32]
3000423c:	ea000012 	b	3000428c <lcd_test+0x4bc>
30004240:	e3a03000 	mov	r3, #0	; 0x0
30004244:	e50b301c 	str	r3, [fp, #-28]
30004248:	ea000008 	b	30004270 <lcd_test+0x4a0>
3000424c:	e51b2010 	ldr	r2, [fp, #-16]
30004250:	e3a03cff 	mov	r3, #65280	; 0xff00
30004254:	e5823000 	str	r3, [r2]
30004258:	e51b3010 	ldr	r3, [fp, #-16]
3000425c:	e2833004 	add	r3, r3, #4	; 0x4
30004260:	e50b3010 	str	r3, [fp, #-16]
30004264:	e51b301c 	ldr	r3, [fp, #-28]
30004268:	e2833001 	add	r3, r3, #1	; 0x1
3000426c:	e50b301c 	str	r3, [fp, #-28]
30004270:	e51b202c 	ldr	r2, [fp, #-44]
30004274:	e51b301c 	ldr	r3, [fp, #-28]
30004278:	e1530002 	cmp	r3, r2
3000427c:	bafffff2 	blt	3000424c <lcd_test+0x47c>
30004280:	e51b3020 	ldr	r3, [fp, #-32]
30004284:	e2833001 	add	r3, r3, #1	; 0x1
30004288:	e50b3020 	str	r3, [fp, #-32]
3000428c:	e51b2028 	ldr	r2, [fp, #-40]
30004290:	e51b3020 	ldr	r3, [fp, #-32]
30004294:	e1530002 	cmp	r3, r2
30004298:	baffffe8 	blt	30004240 <lcd_test+0x470>
3000429c:	e51b3024 	ldr	r3, [fp, #-36]
300042a0:	e50b3010 	str	r3, [fp, #-16]
300042a4:	e3a03000 	mov	r3, #0	; 0x0
300042a8:	e50b3020 	str	r3, [fp, #-32]
300042ac:	ea000012 	b	300042fc <lcd_test+0x52c>
300042b0:	e3a03000 	mov	r3, #0	; 0x0
300042b4:	e50b301c 	str	r3, [fp, #-28]
300042b8:	ea000008 	b	300042e0 <lcd_test+0x510>
300042bc:	e51b2010 	ldr	r2, [fp, #-16]
300042c0:	e3a030ff 	mov	r3, #255	; 0xff
300042c4:	e5823000 	str	r3, [r2]
300042c8:	e51b3010 	ldr	r3, [fp, #-16]
300042cc:	e2833004 	add	r3, r3, #4	; 0x4
300042d0:	e50b3010 	str	r3, [fp, #-16]
300042d4:	e51b301c 	ldr	r3, [fp, #-28]
300042d8:	e2833001 	add	r3, r3, #1	; 0x1
300042dc:	e50b301c 	str	r3, [fp, #-28]
300042e0:	e51b202c 	ldr	r2, [fp, #-44]
300042e4:	e51b301c 	ldr	r3, [fp, #-28]
300042e8:	e1530002 	cmp	r3, r2
300042ec:	bafffff2 	blt	300042bc <lcd_test+0x4ec>
300042f0:	e51b3020 	ldr	r3, [fp, #-32]
300042f4:	e2833001 	add	r3, r3, #1	; 0x1
300042f8:	e50b3020 	str	r3, [fp, #-32]
300042fc:	e51b2028 	ldr	r2, [fp, #-40]
30004300:	e51b3020 	ldr	r3, [fp, #-32]
30004304:	e1530002 	cmp	r3, r2
30004308:	baffffe8 	blt	300042b0 <lcd_test+0x4e0>
3000430c:	e51b3024 	ldr	r3, [fp, #-36]
30004310:	e50b3010 	str	r3, [fp, #-16]
30004314:	e3a03000 	mov	r3, #0	; 0x0
30004318:	e50b3020 	str	r3, [fp, #-32]
3000431c:	ea000012 	b	3000436c <lcd_test+0x59c>
30004320:	e3a03000 	mov	r3, #0	; 0x0
30004324:	e50b301c 	str	r3, [fp, #-28]
30004328:	ea000008 	b	30004350 <lcd_test+0x580>
3000432c:	e51b2010 	ldr	r2, [fp, #-16]
30004330:	e3a03000 	mov	r3, #0	; 0x0
30004334:	e5823000 	str	r3, [r2]
30004338:	e51b3010 	ldr	r3, [fp, #-16]
3000433c:	e2833004 	add	r3, r3, #4	; 0x4
30004340:	e50b3010 	str	r3, [fp, #-16]
30004344:	e51b301c 	ldr	r3, [fp, #-28]
30004348:	e2833001 	add	r3, r3, #1	; 0x1
3000434c:	e50b301c 	str	r3, [fp, #-28]
30004350:	e51b202c 	ldr	r2, [fp, #-44]
30004354:	e51b301c 	ldr	r3, [fp, #-28]
30004358:	e1530002 	cmp	r3, r2
3000435c:	bafffff2 	blt	3000432c <lcd_test+0x55c>
30004360:	e51b3020 	ldr	r3, [fp, #-32]
30004364:	e2833001 	add	r3, r3, #1	; 0x1
30004368:	e50b3020 	str	r3, [fp, #-32]
3000436c:	e51b2028 	ldr	r2, [fp, #-40]
30004370:	e51b3020 	ldr	r3, [fp, #-32]
30004374:	e1530002 	cmp	r3, r2
30004378:	baffffe8 	blt	30004320 <lcd_test+0x550>
3000437c:	e3a0093d 	mov	r0, #999424	; 0xf4000
30004380:	e2800d09 	add	r0, r0, #576	; 0x240
30004384:	ebffef85 	bl	300001a0 <delay>
30004388:	e51b3028 	ldr	r3, [fp, #-40]
3000438c:	e2432001 	sub	r2, r3, #1	; 0x1
30004390:	e3a03709 	mov	r3, #2359296	; 0x240000
30004394:	e2433089 	sub	r3, r3, #137	; 0x89
30004398:	e58d3000 	str	r3, [sp]
3000439c:	e3a00000 	mov	r0, #0	; 0x0
300043a0:	e3a01000 	mov	r1, #0	; 0x0
300043a4:	e3a03000 	mov	r3, #0	; 0x0
300043a8:	ebfffc11 	bl	300033f4 <draw_line>
300043ac:	e51b3028 	ldr	r3, [fp, #-40]
300043b0:	e2432001 	sub	r2, r3, #1	; 0x1
300043b4:	e51b3028 	ldr	r3, [fp, #-40]
300043b8:	e243c001 	sub	ip, r3, #1	; 0x1
300043bc:	e51b302c 	ldr	r3, [fp, #-44]
300043c0:	e2434001 	sub	r4, r3, #1	; 0x1
300043c4:	e3a03801 	mov	r3, #65536	; 0x10000
300043c8:	e2433001 	sub	r3, r3, #1	; 0x1
300043cc:	e58d3000 	str	r3, [sp]
300043d0:	e1a00002 	mov	r0, r2
300043d4:	e3a01000 	mov	r1, #0	; 0x0
300043d8:	e1a0200c 	mov	r2, ip
300043dc:	e1a03004 	mov	r3, r4
300043e0:	ebfffc03 	bl	300033f4 <draw_line>
300043e4:	e51b302c 	ldr	r3, [fp, #-44]
300043e8:	e2432001 	sub	r2, r3, #1	; 0x1
300043ec:	e51b3028 	ldr	r3, [fp, #-40]
300043f0:	e243c001 	sub	ip, r3, #1	; 0x1
300043f4:	e51b302c 	ldr	r3, [fp, #-44]
300043f8:	e2434001 	sub	r4, r3, #1	; 0x1
300043fc:	e3a038ff 	mov	r3, #16711680	; 0xff0000
30004400:	e28330aa 	add	r3, r3, #170	; 0xaa
30004404:	e58d3000 	str	r3, [sp]
30004408:	e3a00000 	mov	r0, #0	; 0x0
3000440c:	e1a01002 	mov	r1, r2
30004410:	e1a0200c 	mov	r2, ip
30004414:	e1a03004 	mov	r3, r4
30004418:	ebfffbf5 	bl	300033f4 <draw_line>
3000441c:	e51b302c 	ldr	r3, [fp, #-44]
30004420:	e243c001 	sub	ip, r3, #1	; 0x1
30004424:	e3a038ff 	mov	r3, #16711680	; 0xff0000
30004428:	e28330ef 	add	r3, r3, #239	; 0xef
3000442c:	e58d3000 	str	r3, [sp]
30004430:	e3a00000 	mov	r0, #0	; 0x0
30004434:	e3a01000 	mov	r1, #0	; 0x0
30004438:	e3a02000 	mov	r2, #0	; 0x0
3000443c:	e1a0300c 	mov	r3, ip
30004440:	ebfffbeb 	bl	300033f4 <draw_line>
30004444:	e51b3028 	ldr	r3, [fp, #-40]
30004448:	e2432001 	sub	r2, r3, #1	; 0x1
3000444c:	e51b302c 	ldr	r3, [fp, #-44]
30004450:	e243c001 	sub	ip, r3, #1	; 0x1
30004454:	e3a03cff 	mov	r3, #65280	; 0xff00
30004458:	e2833045 	add	r3, r3, #69	; 0x45
3000445c:	e58d3000 	str	r3, [sp]
30004460:	e3a00000 	mov	r0, #0	; 0x0
30004464:	e3a01000 	mov	r1, #0	; 0x0
30004468:	e1a0300c 	mov	r3, ip
3000446c:	ebfffbe0 	bl	300033f4 <draw_line>
30004470:	e51b3028 	ldr	r3, [fp, #-40]
30004474:	e2432001 	sub	r2, r3, #1	; 0x1
30004478:	e51b302c 	ldr	r3, [fp, #-44]
3000447c:	e243c001 	sub	ip, r3, #1	; 0x1
30004480:	e3a038ff 	mov	r3, #16711680	; 0xff0000
30004484:	e2833d1e 	add	r3, r3, #1920	; 0x780
30004488:	e58d3000 	str	r3, [sp]
3000448c:	e1a00002 	mov	r0, r2
30004490:	e3a01000 	mov	r1, #0	; 0x0
30004494:	e3a02000 	mov	r2, #0	; 0x0
30004498:	e1a0300c 	mov	r3, ip
3000449c:	ebfffbd4 	bl	300033f4 <draw_line>
300044a0:	e3a0093d 	mov	r0, #999424	; 0xf4000
300044a4:	e2800d09 	add	r0, r0, #576	; 0x240
300044a8:	ebffef3c 	bl	300001a0 <delay>
300044ac:	e51b2028 	ldr	r2, [fp, #-40]
300044b0:	e1a03fa2 	lsr	r3, r2, #31
300044b4:	e0833002 	add	r3, r3, r2
300044b8:	e1a030c3 	asr	r3, r3, #1
300044bc:	e1a00003 	mov	r0, r3
300044c0:	e51b202c 	ldr	r2, [fp, #-44]
300044c4:	e1a03fa2 	lsr	r3, r2, #31
300044c8:	e0833002 	add	r3, r3, r2
300044cc:	e1a030c3 	asr	r3, r3, #1
300044d0:	e1a01003 	mov	r1, r3
300044d4:	e51b302c 	ldr	r3, [fp, #-44]
300044d8:	e2832003 	add	r2, r3, #3	; 0x3
300044dc:	e3530000 	cmp	r3, #0	; 0x0
300044e0:	b1a03002 	movlt	r3, r2
300044e4:	e1a03143 	asr	r3, r3, #2
300044e8:	e1a02003 	mov	r2, r3
300044ec:	e3a030ff 	mov	r3, #255	; 0xff
300044f0:	ebfffb39 	bl	300031dc <draw_circle>
300044f4:	e3a0000a 	mov	r0, #10	; 0xa
300044f8:	e3a0100a 	mov	r1, #10	; 0xa
300044fc:	e59f2010 	ldr	r2, [pc, #16]	; 30004514 <lcd_test+0x744>
30004500:	e3a030ff 	mov	r3, #255	; 0xff
30004504:	ebfffa70 	bl	30002ecc <fb_print_string>
30004508:	e24bd008 	sub	sp, fp, #8	; 0x8
3000450c:	e8bd4810 	pop	{r4, fp, lr}
30004510:	e12fff1e 	bx	lr
30004514:	30005960 	.word	0x30005960

30004518 <jz2440_lcd_pin_init>:
30004518:	e52db004 	push	{fp}		; (str fp, [sp, #-4]!)
3000451c:	e28db000 	add	fp, sp, #0	; 0x0
30004520:	e3a02456 	mov	r2, #1442840576	; 0x56000000
30004524:	e2822010 	add	r2, r2, #16	; 0x10
30004528:	e3a03456 	mov	r3, #1442840576	; 0x56000000
3000452c:	e2833010 	add	r3, r3, #16	; 0x10
30004530:	e5933000 	ldr	r3, [r3]
30004534:	e3c33003 	bic	r3, r3, #3	; 0x3
30004538:	e5823000 	str	r3, [r2]
3000453c:	e3a02456 	mov	r2, #1442840576	; 0x56000000
30004540:	e2822010 	add	r2, r2, #16	; 0x10
30004544:	e3a03456 	mov	r3, #1442840576	; 0x56000000
30004548:	e2833010 	add	r3, r3, #16	; 0x10
3000454c:	e5933000 	ldr	r3, [r3]
30004550:	e3833001 	orr	r3, r3, #1	; 0x1
30004554:	e5823000 	str	r3, [r2]
30004558:	e3a02456 	mov	r2, #1442840576	; 0x56000000
3000455c:	e2822020 	add	r2, r2, #32	; 0x20
30004560:	e3a03caa 	mov	r3, #43520	; 0xaa00
30004564:	e28330aa 	add	r3, r3, #170	; 0xaa
30004568:	e1833803 	orr	r3, r3, r3, lsl #16
3000456c:	e5823000 	str	r3, [r2]
30004570:	e3a02456 	mov	r2, #1442840576	; 0x56000000
30004574:	e2822030 	add	r2, r2, #48	; 0x30
30004578:	e3a03caa 	mov	r3, #43520	; 0xaa00
3000457c:	e28330aa 	add	r3, r3, #170	; 0xaa
30004580:	e1833803 	orr	r3, r3, r3, lsl #16
30004584:	e5823000 	str	r3, [r2]
30004588:	e3a02456 	mov	r2, #1442840576	; 0x56000000
3000458c:	e2822060 	add	r2, r2, #96	; 0x60
30004590:	e3a03456 	mov	r3, #1442840576	; 0x56000000
30004594:	e2833060 	add	r3, r3, #96	; 0x60
30004598:	e5933000 	ldr	r3, [r3]
3000459c:	e3833c03 	orr	r3, r3, #768	; 0x300
300045a0:	e5823000 	str	r3, [r2]
300045a4:	e28bd000 	add	sp, fp, #0	; 0x0
300045a8:	e8bd0800 	pop	{fp}
300045ac:	e12fff1e 	bx	lr

300045b0 <s3c2440_lcd_controller_init>:
300045b0:	e92d4870 	push	{r4, r5, r6, fp, lr}
300045b4:	e28db010 	add	fp, sp, #16	; 0x10
300045b8:	e24dd02c 	sub	sp, sp, #44	; 0x2c
300045bc:	e50b0028 	str	r0, [fp, #-40]
300045c0:	ebffffd4 	bl	30004518 <jz2440_lcd_pin_init>
300045c4:	e51b3028 	ldr	r3, [fp, #-40]
300045c8:	e5933034 	ldr	r3, [r3, #52]
300045cc:	e1a00003 	mov	r0, r3
300045d0:	eb000319 	bl	3000523c <__aeabi_i2f>
300045d4:	e1a02000 	mov	r2, r0
300045d8:	e59f32fc 	ldr	r3, [pc, #764]	; 300048dc <s3c2440_lcd_controller_init+0x32c>
300045dc:	e1a00003 	mov	r0, r3
300045e0:	e1a01002 	mov	r1, r2
300045e4:	eb0003a5 	bl	30005480 <__aeabi_fdiv>
300045e8:	e1a03000 	mov	r3, r0
300045ec:	e59f22ec 	ldr	r2, [pc, #748]	; 300048e0 <s3c2440_lcd_controller_init+0x330>
300045f0:	e1a00003 	mov	r0, r3
300045f4:	e1a01002 	mov	r1, r2
300045f8:	eb0003a0 	bl	30005480 <__aeabi_fdiv>
300045fc:	e1a03000 	mov	r3, r0
30004600:	e59f22dc 	ldr	r2, [pc, #732]	; 300048e4 <s3c2440_lcd_controller_init+0x334>
30004604:	e1a00003 	mov	r0, r3
30004608:	e1a01002 	mov	r1, r2
3000460c:	eb0002a3 	bl	300050a0 <__aeabi_fsub>
30004610:	e1a03000 	mov	r3, r0
30004614:	e1a00003 	mov	r0, r3
30004618:	eb00025a 	bl	30004f88 <__aeabi_f2d>
3000461c:	e1a03000 	mov	r3, r0
30004620:	e1a04001 	mov	r4, r1
30004624:	e3a05000 	mov	r5, #0	; 0x0
30004628:	e3a065ff 	mov	r6, #1069547520	; 0x3fc00000
3000462c:	e2866602 	add	r6, r6, #2097152	; 0x200000
30004630:	e1a00003 	mov	r0, r3
30004634:	e1a01004 	mov	r1, r4
30004638:	e1a02005 	mov	r2, r5
3000463c:	e1a03006 	mov	r3, r6
30004640:	eb000192 	bl	30004c90 <__adddf3>
30004644:	e1a03000 	mov	r3, r0
30004648:	e1a04001 	mov	r4, r1
3000464c:	e1a00003 	mov	r0, r3
30004650:	e1a01004 	mov	r1, r4
30004654:	eb000278 	bl	3000503c <__aeabi_d2iz>
30004658:	e1a03000 	mov	r3, r0
3000465c:	e50b301c 	str	r3, [fp, #-28]
30004660:	e51b3028 	ldr	r3, [fp, #-40]
30004664:	e5933040 	ldr	r3, [r3, #64]
30004668:	e3530008 	cmp	r3, #8	; 0x8
3000466c:	0a00000b 	beq	300046a0 <s3c2440_lcd_controller_init+0xf0>
30004670:	e51b3028 	ldr	r3, [fp, #-40]
30004674:	e5933040 	ldr	r3, [r3, #64]
30004678:	e3530010 	cmp	r3, #16	; 0x10
3000467c:	1a000002 	bne	3000468c <s3c2440_lcd_controller_init+0xdc>
30004680:	e3a0300c 	mov	r3, #12	; 0xc
30004684:	e50b3034 	str	r3, [fp, #-52]
30004688:	ea000001 	b	30004694 <s3c2440_lcd_controller_init+0xe4>
3000468c:	e3a0300d 	mov	r3, #13	; 0xd
30004690:	e50b3034 	str	r3, [fp, #-52]
30004694:	e51b3034 	ldr	r3, [fp, #-52]
30004698:	e50b3038 	str	r3, [fp, #-56]
3000469c:	ea000001 	b	300046a8 <s3c2440_lcd_controller_init+0xf8>
300046a0:	e3a0300b 	mov	r3, #11	; 0xb
300046a4:	e50b3038 	str	r3, [fp, #-56]
300046a8:	e51b3038 	ldr	r3, [fp, #-56]
300046ac:	e50b3018 	str	r3, [fp, #-24]
300046b0:	e3a0144d 	mov	r1, #1291845632	; 0x4d000000
300046b4:	e51b301c 	ldr	r3, [fp, #-28]
300046b8:	e1a03403 	lsl	r3, r3, #8
300046bc:	e3832060 	orr	r2, r3, #96	; 0x60
300046c0:	e51b3018 	ldr	r3, [fp, #-24]
300046c4:	e1a03083 	lsl	r3, r3, #1
300046c8:	e1823003 	orr	r3, r2, r3
300046cc:	e5813000 	str	r3, [r1]
300046d0:	e3a0144d 	mov	r1, #1291845632	; 0x4d000000
300046d4:	e2811004 	add	r1, r1, #4	; 0x4
300046d8:	e51b3028 	ldr	r3, [fp, #-40]
300046dc:	e5933020 	ldr	r3, [r3, #32]
300046e0:	e2433001 	sub	r3, r3, #1	; 0x1
300046e4:	e1a02c03 	lsl	r2, r3, #24
300046e8:	e51b3028 	ldr	r3, [fp, #-40]
300046ec:	e593303c 	ldr	r3, [r3, #60]
300046f0:	e2433001 	sub	r3, r3, #1	; 0x1
300046f4:	e1a03703 	lsl	r3, r3, #14
300046f8:	e1822003 	orr	r2, r2, r3
300046fc:	e51b3028 	ldr	r3, [fp, #-40]
30004700:	e5933024 	ldr	r3, [r3, #36]
30004704:	e2433001 	sub	r3, r3, #1	; 0x1
30004708:	e1a03303 	lsl	r3, r3, #6
3000470c:	e1822003 	orr	r2, r2, r3
30004710:	e51b3028 	ldr	r3, [fp, #-40]
30004714:	e593301c 	ldr	r3, [r3, #28]
30004718:	e2433001 	sub	r3, r3, #1	; 0x1
3000471c:	e1823003 	orr	r3, r2, r3
30004720:	e5813000 	str	r3, [r1]
30004724:	e3a0244d 	mov	r2, #1291845632	; 0x4d000000
30004728:	e2822008 	add	r2, r2, #8	; 0x8
3000472c:	e51b3028 	ldr	r3, [fp, #-40]
30004730:	e593302c 	ldr	r3, [r3, #44]
30004734:	e2433001 	sub	r3, r3, #1	; 0x1
30004738:	e1a01983 	lsl	r1, r3, #19
3000473c:	e51b3028 	ldr	r3, [fp, #-40]
30004740:	e5933038 	ldr	r3, [r3, #56]
30004744:	e2433001 	sub	r3, r3, #1	; 0x1
30004748:	e1a03403 	lsl	r3, r3, #8
3000474c:	e1811003 	orr	r1, r1, r3
30004750:	e51b3028 	ldr	r3, [fp, #-40]
30004754:	e5933030 	ldr	r3, [r3, #48]
30004758:	e2433001 	sub	r3, r3, #1	; 0x1
3000475c:	e1813003 	orr	r3, r1, r3
30004760:	e5823000 	str	r3, [r2]
30004764:	e3a0244d 	mov	r2, #1291845632	; 0x4d000000
30004768:	e282200c 	add	r2, r2, #12	; 0xc
3000476c:	e51b3028 	ldr	r3, [fp, #-40]
30004770:	e5933028 	ldr	r3, [r3, #40]
30004774:	e2433001 	sub	r3, r3, #1	; 0x1
30004778:	e5823000 	str	r3, [r2]
3000477c:	e51b3028 	ldr	r3, [fp, #-40]
30004780:	e5933040 	ldr	r3, [r3, #64]
30004784:	e3530020 	cmp	r3, #32	; 0x20
30004788:	0a00000b 	beq	300047bc <s3c2440_lcd_controller_init+0x20c>
3000478c:	e51b3028 	ldr	r3, [fp, #-40]
30004790:	e5933040 	ldr	r3, [r3, #64]
30004794:	e3530010 	cmp	r3, #16	; 0x10
30004798:	1a000002 	bne	300047a8 <s3c2440_lcd_controller_init+0x1f8>
3000479c:	e3a03001 	mov	r3, #1	; 0x1
300047a0:	e50b302c 	str	r3, [fp, #-44]
300047a4:	ea000001 	b	300047b0 <s3c2440_lcd_controller_init+0x200>
300047a8:	e3a03002 	mov	r3, #2	; 0x2
300047ac:	e50b302c 	str	r3, [fp, #-44]
300047b0:	e51b302c 	ldr	r3, [fp, #-44]
300047b4:	e50b3030 	str	r3, [fp, #-48]
300047b8:	ea000001 	b	300047c4 <s3c2440_lcd_controller_init+0x214>
300047bc:	e3a03000 	mov	r3, #0	; 0x0
300047c0:	e50b3030 	str	r3, [fp, #-48]
300047c4:	e51b3030 	ldr	r3, [fp, #-48]
300047c8:	e50b3024 	str	r3, [fp, #-36]
300047cc:	e3a0144d 	mov	r1, #1291845632	; 0x4d000000
300047d0:	e2811010 	add	r1, r1, #16	; 0x10
300047d4:	e51b3028 	ldr	r3, [fp, #-40]
300047d8:	e593300c 	ldr	r3, [r3, #12]
300047dc:	e1a02503 	lsl	r2, r3, #10
300047e0:	e51b3028 	ldr	r3, [fp, #-40]
300047e4:	e5933010 	ldr	r3, [r3, #16]
300047e8:	e1a03383 	lsl	r3, r3, #7
300047ec:	e1822003 	orr	r2, r2, r3
300047f0:	e51b3028 	ldr	r3, [fp, #-40]
300047f4:	e5933014 	ldr	r3, [r3, #20]
300047f8:	e1a03483 	lsl	r3, r3, #9
300047fc:	e1822003 	orr	r2, r2, r3
30004800:	e51b3028 	ldr	r3, [fp, #-40]
30004804:	e5933018 	ldr	r3, [r3, #24]
30004808:	e1a03403 	lsl	r3, r3, #8
3000480c:	e1822003 	orr	r2, r2, r3
30004810:	e51b3028 	ldr	r3, [fp, #-40]
30004814:	e5933004 	ldr	r3, [r3, #4]
30004818:	e1a03303 	lsl	r3, r3, #6
3000481c:	e1822003 	orr	r2, r2, r3
30004820:	e51b3028 	ldr	r3, [fp, #-40]
30004824:	e5933008 	ldr	r3, [r3, #8]
30004828:	e1a03283 	lsl	r3, r3, #5
3000482c:	e1823003 	orr	r3, r2, r3
30004830:	e3832b02 	orr	r2, r3, #2048	; 0x800
30004834:	e51b3024 	ldr	r3, [fp, #-36]
30004838:	e1823003 	orr	r3, r2, r3
3000483c:	e5813000 	str	r3, [r1]
30004840:	e51b3028 	ldr	r3, [fp, #-40]
30004844:	e5933044 	ldr	r3, [r3, #68]
30004848:	e3c33102 	bic	r3, r3, #-2147483648	; 0x80000000
3000484c:	e50b3020 	str	r3, [fp, #-32]
30004850:	e3a0344d 	mov	r3, #1291845632	; 0x4d000000
30004854:	e2833014 	add	r3, r3, #20	; 0x14
30004858:	e51b2020 	ldr	r2, [fp, #-32]
3000485c:	e1a020a2 	lsr	r2, r2, #1
30004860:	e5832000 	str	r2, [r3]
30004864:	e51b3028 	ldr	r3, [fp, #-40]
30004868:	e5931044 	ldr	r1, [r3, #68]
3000486c:	e51b3028 	ldr	r3, [fp, #-40]
30004870:	e5932038 	ldr	r2, [r3, #56]
30004874:	e51b3028 	ldr	r3, [fp, #-40]
30004878:	e593303c 	ldr	r3, [r3, #60]
3000487c:	e0020293 	mul	r2, r3, r2
30004880:	e51b3028 	ldr	r3, [fp, #-40]
30004884:	e5933040 	ldr	r3, [r3, #64]
30004888:	e0030392 	mul	r3, r2, r3
3000488c:	e2832007 	add	r2, r3, #7	; 0x7
30004890:	e3530000 	cmp	r3, #0	; 0x0
30004894:	b1a03002 	movlt	r3, r2
30004898:	e1a031c3 	asr	r3, r3, #3
3000489c:	e0813003 	add	r3, r1, r3
300048a0:	e50b3020 	str	r3, [fp, #-32]
300048a4:	e51b3020 	ldr	r3, [fp, #-32]
300048a8:	e1a030a3 	lsr	r3, r3, #1
300048ac:	e50b3020 	str	r3, [fp, #-32]
300048b0:	e51b3020 	ldr	r3, [fp, #-32]
300048b4:	e3c334ff 	bic	r3, r3, #-16777216	; 0xff000000
300048b8:	e3c3360e 	bic	r3, r3, #14680064	; 0xe00000
300048bc:	e50b3020 	str	r3, [fp, #-32]
300048c0:	e3a0344d 	mov	r3, #1291845632	; 0x4d000000
300048c4:	e2833018 	add	r3, r3, #24	; 0x18
300048c8:	e51b2020 	ldr	r2, [fp, #-32]
300048cc:	e5832000 	str	r2, [r3]
300048d0:	e24bd010 	sub	sp, fp, #16	; 0x10
300048d4:	e8bd4870 	pop	{r4, r5, r6, fp, lr}
300048d8:	e12fff1e 	bx	lr
300048dc:	42c80000 	.word	0x42c80000
300048e0:	40000000 	.word	0x40000000
300048e4:	3f800000 	.word	0x3f800000

300048e8 <s3c2440_lcd_controller_enalbe>:
300048e8:	e52db004 	push	{fp}		; (str fp, [sp, #-4]!)
300048ec:	e28db000 	add	fp, sp, #0	; 0x0
300048f0:	e3a02456 	mov	r2, #1442840576	; 0x56000000
300048f4:	e2822014 	add	r2, r2, #20	; 0x14
300048f8:	e3a03456 	mov	r3, #1442840576	; 0x56000000
300048fc:	e2833014 	add	r3, r3, #20	; 0x14
30004900:	e5933000 	ldr	r3, [r3]
30004904:	e3833001 	orr	r3, r3, #1	; 0x1
30004908:	e5823000 	str	r3, [r2]
3000490c:	e3a0244d 	mov	r2, #1291845632	; 0x4d000000
30004910:	e2822010 	add	r2, r2, #16	; 0x10
30004914:	e3a0344d 	mov	r3, #1291845632	; 0x4d000000
30004918:	e2833010 	add	r3, r3, #16	; 0x10
3000491c:	e5933000 	ldr	r3, [r3]
30004920:	e3833008 	orr	r3, r3, #8	; 0x8
30004924:	e5823000 	str	r3, [r2]
30004928:	e3a0244d 	mov	r2, #1291845632	; 0x4d000000
3000492c:	e3a0344d 	mov	r3, #1291845632	; 0x4d000000
30004930:	e5933000 	ldr	r3, [r3]
30004934:	e3833001 	orr	r3, r3, #1	; 0x1
30004938:	e5823000 	str	r3, [r2]
3000493c:	e28bd000 	add	sp, fp, #0	; 0x0
30004940:	e8bd0800 	pop	{fp}
30004944:	e12fff1e 	bx	lr

30004948 <s3c2440_lcd_controller_disable>:
30004948:	e52db004 	push	{fp}		; (str fp, [sp, #-4]!)
3000494c:	e28db000 	add	fp, sp, #0	; 0x0
30004950:	e3a02456 	mov	r2, #1442840576	; 0x56000000
30004954:	e2822014 	add	r2, r2, #20	; 0x14
30004958:	e3a03456 	mov	r3, #1442840576	; 0x56000000
3000495c:	e2833014 	add	r3, r3, #20	; 0x14
30004960:	e5933000 	ldr	r3, [r3]
30004964:	e3c33001 	bic	r3, r3, #1	; 0x1
30004968:	e5823000 	str	r3, [r2]
3000496c:	e3a0244d 	mov	r2, #1291845632	; 0x4d000000
30004970:	e2822010 	add	r2, r2, #16	; 0x10
30004974:	e3a0344d 	mov	r3, #1291845632	; 0x4d000000
30004978:	e2833010 	add	r3, r3, #16	; 0x10
3000497c:	e5933000 	ldr	r3, [r3]
30004980:	e3c33008 	bic	r3, r3, #8	; 0x8
30004984:	e5823000 	str	r3, [r2]
30004988:	e3a0244d 	mov	r2, #1291845632	; 0x4d000000
3000498c:	e3a0344d 	mov	r3, #1291845632	; 0x4d000000
30004990:	e5933000 	ldr	r3, [r3]
30004994:	e3c33001 	bic	r3, r3, #1	; 0x1
30004998:	e5823000 	str	r3, [r2]
3000499c:	e28bd000 	add	sp, fp, #0	; 0x0
300049a0:	e8bd0800 	pop	{fp}
300049a4:	e12fff1e 	bx	lr

300049a8 <s3c2440_lcd_controller_init_palette>:
300049a8:	e52db004 	push	{fp}		; (str fp, [sp, #-4]!)
300049ac:	e28db000 	add	fp, sp, #0	; 0x0
300049b0:	e24dd014 	sub	sp, sp, #20	; 0x14
300049b4:	e3a0344d 	mov	r3, #1291845632	; 0x4d000000
300049b8:	e2833b01 	add	r3, r3, #1024	; 0x400
300049bc:	e50b3010 	str	r3, [fp, #-16]
300049c0:	e3a0344d 	mov	r3, #1291845632	; 0x4d000000
300049c4:	e5933000 	ldr	r3, [r3]
300049c8:	e2033001 	and	r3, r3, #1	; 0x1
300049cc:	e50b3008 	str	r3, [fp, #-8]
300049d0:	e51b3008 	ldr	r3, [fp, #-8]
300049d4:	e3530000 	cmp	r3, #0	; 0x0
300049d8:	0a000004 	beq	300049f0 <s3c2440_lcd_controller_init_palette+0x48>
300049dc:	e3a0244d 	mov	r2, #1291845632	; 0x4d000000
300049e0:	e3a0344d 	mov	r3, #1291845632	; 0x4d000000
300049e4:	e5933000 	ldr	r3, [r3]
300049e8:	e3c33001 	bic	r3, r3, #1	; 0x1
300049ec:	e5823000 	str	r3, [r2]
300049f0:	e3a03000 	mov	r3, #0	; 0x0
300049f4:	e50b300c 	str	r3, [fp, #-12]
300049f8:	ea000008 	b	30004a20 <s3c2440_lcd_controller_init_palette+0x78>
300049fc:	e51b200c 	ldr	r2, [fp, #-12]
30004a00:	e51b3010 	ldr	r3, [fp, #-16]
30004a04:	e5832000 	str	r2, [r3]
30004a08:	e51b3010 	ldr	r3, [fp, #-16]
30004a0c:	e2833004 	add	r3, r3, #4	; 0x4
30004a10:	e50b3010 	str	r3, [fp, #-16]
30004a14:	e51b300c 	ldr	r3, [fp, #-12]
30004a18:	e2833001 	add	r3, r3, #1	; 0x1
30004a1c:	e50b300c 	str	r3, [fp, #-12]
30004a20:	e51b300c 	ldr	r3, [fp, #-12]
30004a24:	e35300ff 	cmp	r3, #255	; 0xff
30004a28:	dafffff3 	ble	300049fc <s3c2440_lcd_controller_init_palette+0x54>
30004a2c:	e51b3008 	ldr	r3, [fp, #-8]
30004a30:	e3530000 	cmp	r3, #0	; 0x0
30004a34:	0a000004 	beq	30004a4c <s3c2440_lcd_controller_init_palette+0xa4>
30004a38:	e3a0244d 	mov	r2, #1291845632	; 0x4d000000
30004a3c:	e3a0344d 	mov	r3, #1291845632	; 0x4d000000
30004a40:	e5933000 	ldr	r3, [r3]
30004a44:	e3833001 	orr	r3, r3, #1	; 0x1
30004a48:	e5823000 	str	r3, [r2]
30004a4c:	e28bd000 	add	sp, fp, #0	; 0x0
30004a50:	e8bd0800 	pop	{fp}
30004a54:	e12fff1e 	bx	lr

30004a58 <s3c2440_lcd_contoller_add>:
30004a58:	e92d4800 	push	{fp, lr}
30004a5c:	e28db004 	add	fp, sp, #4	; 0x4
30004a60:	e59f000c 	ldr	r0, [pc, #12]	; 30004a74 <s3c2440_lcd_contoller_add+0x1c>
30004a64:	ebfffc49 	bl	30003b90 <register_lcd_controller>
30004a68:	e24bd004 	sub	sp, fp, #4	; 0x4
30004a6c:	e8bd4800 	pop	{fp, lr}
30004a70:	e12fff1e 	bx	lr
30004a74:	30006ae8 	.word	0x30006ae8

30004a78 <__aeabi_uidiv>:
30004a78:	e2512001 	subs	r2, r1, #1	; 0x1
30004a7c:	012fff1e 	bxeq	lr
30004a80:	3a000074 	bcc	30004c58 <__aeabi_uidiv+0x1e0>
30004a84:	e1500001 	cmp	r0, r1
30004a88:	9a00006b 	bls	30004c3c <__aeabi_uidiv+0x1c4>
30004a8c:	e1110002 	tst	r1, r2
30004a90:	0a00006c 	beq	30004c48 <__aeabi_uidiv+0x1d0>
30004a94:	e16f3f10 	clz	r3, r0
30004a98:	e16f2f11 	clz	r2, r1
30004a9c:	e0423003 	sub	r3, r2, r3
30004aa0:	e273301f 	rsbs	r3, r3, #31	; 0x1f
30004aa4:	10833083 	addne	r3, r3, r3, lsl #1
30004aa8:	e3a02000 	mov	r2, #0	; 0x0
30004aac:	108ff103 	addne	pc, pc, r3, lsl #2
30004ab0:	e1a00000 	nop			(mov r0,r0)
30004ab4:	e1500f81 	cmp	r0, r1, lsl #31
30004ab8:	e0a22002 	adc	r2, r2, r2
30004abc:	20400f81 	subcs	r0, r0, r1, lsl #31
30004ac0:	e1500f01 	cmp	r0, r1, lsl #30
30004ac4:	e0a22002 	adc	r2, r2, r2
30004ac8:	20400f01 	subcs	r0, r0, r1, lsl #30
30004acc:	e1500e81 	cmp	r0, r1, lsl #29
30004ad0:	e0a22002 	adc	r2, r2, r2
30004ad4:	20400e81 	subcs	r0, r0, r1, lsl #29
30004ad8:	e1500e01 	cmp	r0, r1, lsl #28
30004adc:	e0a22002 	adc	r2, r2, r2
30004ae0:	20400e01 	subcs	r0, r0, r1, lsl #28
30004ae4:	e1500d81 	cmp	r0, r1, lsl #27
30004ae8:	e0a22002 	adc	r2, r2, r2
30004aec:	20400d81 	subcs	r0, r0, r1, lsl #27
30004af0:	e1500d01 	cmp	r0, r1, lsl #26
30004af4:	e0a22002 	adc	r2, r2, r2
30004af8:	20400d01 	subcs	r0, r0, r1, lsl #26
30004afc:	e1500c81 	cmp	r0, r1, lsl #25
30004b00:	e0a22002 	adc	r2, r2, r2
30004b04:	20400c81 	subcs	r0, r0, r1, lsl #25
30004b08:	e1500c01 	cmp	r0, r1, lsl #24
30004b0c:	e0a22002 	adc	r2, r2, r2
30004b10:	20400c01 	subcs	r0, r0, r1, lsl #24
30004b14:	e1500b81 	cmp	r0, r1, lsl #23
30004b18:	e0a22002 	adc	r2, r2, r2
30004b1c:	20400b81 	subcs	r0, r0, r1, lsl #23
30004b20:	e1500b01 	cmp	r0, r1, lsl #22
30004b24:	e0a22002 	adc	r2, r2, r2
30004b28:	20400b01 	subcs	r0, r0, r1, lsl #22
30004b2c:	e1500a81 	cmp	r0, r1, lsl #21
30004b30:	e0a22002 	adc	r2, r2, r2
30004b34:	20400a81 	subcs	r0, r0, r1, lsl #21
30004b38:	e1500a01 	cmp	r0, r1, lsl #20
30004b3c:	e0a22002 	adc	r2, r2, r2
30004b40:	20400a01 	subcs	r0, r0, r1, lsl #20
30004b44:	e1500981 	cmp	r0, r1, lsl #19
30004b48:	e0a22002 	adc	r2, r2, r2
30004b4c:	20400981 	subcs	r0, r0, r1, lsl #19
30004b50:	e1500901 	cmp	r0, r1, lsl #18
30004b54:	e0a22002 	adc	r2, r2, r2
30004b58:	20400901 	subcs	r0, r0, r1, lsl #18
30004b5c:	e1500881 	cmp	r0, r1, lsl #17
30004b60:	e0a22002 	adc	r2, r2, r2
30004b64:	20400881 	subcs	r0, r0, r1, lsl #17
30004b68:	e1500801 	cmp	r0, r1, lsl #16
30004b6c:	e0a22002 	adc	r2, r2, r2
30004b70:	20400801 	subcs	r0, r0, r1, lsl #16
30004b74:	e1500781 	cmp	r0, r1, lsl #15
30004b78:	e0a22002 	adc	r2, r2, r2
30004b7c:	20400781 	subcs	r0, r0, r1, lsl #15
30004b80:	e1500701 	cmp	r0, r1, lsl #14
30004b84:	e0a22002 	adc	r2, r2, r2
30004b88:	20400701 	subcs	r0, r0, r1, lsl #14
30004b8c:	e1500681 	cmp	r0, r1, lsl #13
30004b90:	e0a22002 	adc	r2, r2, r2
30004b94:	20400681 	subcs	r0, r0, r1, lsl #13
30004b98:	e1500601 	cmp	r0, r1, lsl #12
30004b9c:	e0a22002 	adc	r2, r2, r2
30004ba0:	20400601 	subcs	r0, r0, r1, lsl #12
30004ba4:	e1500581 	cmp	r0, r1, lsl #11
30004ba8:	e0a22002 	adc	r2, r2, r2
30004bac:	20400581 	subcs	r0, r0, r1, lsl #11
30004bb0:	e1500501 	cmp	r0, r1, lsl #10
30004bb4:	e0a22002 	adc	r2, r2, r2
30004bb8:	20400501 	subcs	r0, r0, r1, lsl #10
30004bbc:	e1500481 	cmp	r0, r1, lsl #9
30004bc0:	e0a22002 	adc	r2, r2, r2
30004bc4:	20400481 	subcs	r0, r0, r1, lsl #9
30004bc8:	e1500401 	cmp	r0, r1, lsl #8
30004bcc:	e0a22002 	adc	r2, r2, r2
30004bd0:	20400401 	subcs	r0, r0, r1, lsl #8
30004bd4:	e1500381 	cmp	r0, r1, lsl #7
30004bd8:	e0a22002 	adc	r2, r2, r2
30004bdc:	20400381 	subcs	r0, r0, r1, lsl #7
30004be0:	e1500301 	cmp	r0, r1, lsl #6
30004be4:	e0a22002 	adc	r2, r2, r2
30004be8:	20400301 	subcs	r0, r0, r1, lsl #6
30004bec:	e1500281 	cmp	r0, r1, lsl #5
30004bf0:	e0a22002 	adc	r2, r2, r2
30004bf4:	20400281 	subcs	r0, r0, r1, lsl #5
30004bf8:	e1500201 	cmp	r0, r1, lsl #4
30004bfc:	e0a22002 	adc	r2, r2, r2
30004c00:	20400201 	subcs	r0, r0, r1, lsl #4
30004c04:	e1500181 	cmp	r0, r1, lsl #3
30004c08:	e0a22002 	adc	r2, r2, r2
30004c0c:	20400181 	subcs	r0, r0, r1, lsl #3
30004c10:	e1500101 	cmp	r0, r1, lsl #2
30004c14:	e0a22002 	adc	r2, r2, r2
30004c18:	20400101 	subcs	r0, r0, r1, lsl #2
30004c1c:	e1500081 	cmp	r0, r1, lsl #1
30004c20:	e0a22002 	adc	r2, r2, r2
30004c24:	20400081 	subcs	r0, r0, r1, lsl #1
30004c28:	e1500001 	cmp	r0, r1
30004c2c:	e0a22002 	adc	r2, r2, r2
30004c30:	20400001 	subcs	r0, r0, r1
30004c34:	e1a00002 	mov	r0, r2
30004c38:	e12fff1e 	bx	lr
30004c3c:	03a00001 	moveq	r0, #1	; 0x1
30004c40:	13a00000 	movne	r0, #0	; 0x0
30004c44:	e12fff1e 	bx	lr
30004c48:	e16f2f11 	clz	r2, r1
30004c4c:	e262201f 	rsb	r2, r2, #31	; 0x1f
30004c50:	e1a00230 	lsr	r0, r0, r2
30004c54:	e12fff1e 	bx	lr
30004c58:	e3500000 	cmp	r0, #0	; 0x0
30004c5c:	13e00000 	mvnne	r0, #0	; 0x0
30004c60:	ea00025e 	b	300055e0 <__aeabi_idiv0>

30004c64 <__aeabi_uidivmod>:
30004c64:	e3510000 	cmp	r1, #0	; 0x0
30004c68:	0afffffa 	beq	30004c58 <__aeabi_uidiv+0x1e0>
30004c6c:	e92d4003 	push	{r0, r1, lr}
30004c70:	ebffff80 	bl	30004a78 <__aeabi_uidiv>
30004c74:	e8bd4006 	pop	{r1, r2, lr}
30004c78:	e0030092 	mul	r3, r2, r0
30004c7c:	e0411003 	sub	r1, r1, r3
30004c80:	e12fff1e 	bx	lr

30004c84 <__aeabi_drsub>:
30004c84:	e2211102 	eor	r1, r1, #-2147483648	; 0x80000000
30004c88:	ea000000 	b	30004c90 <__adddf3>

30004c8c <__aeabi_dsub>:
30004c8c:	e2233102 	eor	r3, r3, #-2147483648	; 0x80000000

30004c90 <__adddf3>:
30004c90:	e92d4030 	push	{r4, r5, lr}
30004c94:	e1a04081 	lsl	r4, r1, #1
30004c98:	e1a05083 	lsl	r5, r3, #1
30004c9c:	e1340005 	teq	r4, r5
30004ca0:	01300002 	teqeq	r0, r2
30004ca4:	1194c000 	orrsne	ip, r4, r0
30004ca8:	1195c002 	orrsne	ip, r5, r2
30004cac:	11f0cac4 	mvnsne	ip, r4, asr #21
30004cb0:	11f0cac5 	mvnsne	ip, r5, asr #21
30004cb4:	0a000079 	beq	30004ea0 <__adddf3+0x210>
30004cb8:	e1a04aa4 	lsr	r4, r4, #21
30004cbc:	e0745aa5 	rsbs	r5, r4, r5, lsr #21
30004cc0:	b2655000 	rsblt	r5, r5, #0	; 0x0
30004cc4:	da000006 	ble	30004ce4 <__adddf3+0x54>
30004cc8:	e0844005 	add	r4, r4, r5
30004ccc:	e0202002 	eor	r2, r0, r2
30004cd0:	e0213003 	eor	r3, r1, r3
30004cd4:	e0220000 	eor	r0, r2, r0
30004cd8:	e0231001 	eor	r1, r3, r1
30004cdc:	e0202002 	eor	r2, r0, r2
30004ce0:	e0213003 	eor	r3, r1, r3
30004ce4:	e3550036 	cmp	r5, #54	; 0x36
30004ce8:	88bd8030 	pophi	{r4, r5, pc}
30004cec:	e3110102 	tst	r1, #-2147483648	; 0x80000000
30004cf0:	e1a01601 	lsl	r1, r1, #12
30004cf4:	e3a0c601 	mov	ip, #1048576	; 0x100000
30004cf8:	e18c1621 	orr	r1, ip, r1, lsr #12
30004cfc:	0a000001 	beq	30004d08 <__adddf3+0x78>
30004d00:	e2700000 	rsbs	r0, r0, #0	; 0x0
30004d04:	e2e11000 	rsc	r1, r1, #0	; 0x0
30004d08:	e3130102 	tst	r3, #-2147483648	; 0x80000000
30004d0c:	e1a03603 	lsl	r3, r3, #12
30004d10:	e18c3623 	orr	r3, ip, r3, lsr #12
30004d14:	0a000001 	beq	30004d20 <__adddf3+0x90>
30004d18:	e2722000 	rsbs	r2, r2, #0	; 0x0
30004d1c:	e2e33000 	rsc	r3, r3, #0	; 0x0
30004d20:	e1340005 	teq	r4, r5
30004d24:	0a000057 	beq	30004e88 <__adddf3+0x1f8>
30004d28:	e2444001 	sub	r4, r4, #1	; 0x1
30004d2c:	e275e020 	rsbs	lr, r5, #32	; 0x20
30004d30:	ba000005 	blt	30004d4c <__adddf3+0xbc>
30004d34:	e1a0ce12 	lsl	ip, r2, lr
30004d38:	e0900532 	adds	r0, r0, r2, lsr r5
30004d3c:	e2a11000 	adc	r1, r1, #0	; 0x0
30004d40:	e0900e13 	adds	r0, r0, r3, lsl lr
30004d44:	e0b11553 	adcs	r1, r1, r3, asr r5
30004d48:	ea000006 	b	30004d68 <__adddf3+0xd8>
30004d4c:	e2455020 	sub	r5, r5, #32	; 0x20
30004d50:	e28ee020 	add	lr, lr, #32	; 0x20
30004d54:	e3520001 	cmp	r2, #1	; 0x1
30004d58:	e1a0ce13 	lsl	ip, r3, lr
30004d5c:	238cc002 	orrcs	ip, ip, #2	; 0x2
30004d60:	e0900553 	adds	r0, r0, r3, asr r5
30004d64:	e0b11fc3 	adcs	r1, r1, r3, asr #31
30004d68:	e2015102 	and	r5, r1, #-2147483648	; 0x80000000
30004d6c:	5a000002 	bpl	30004d7c <__adddf3+0xec>
30004d70:	e27cc000 	rsbs	ip, ip, #0	; 0x0
30004d74:	e2f00000 	rscs	r0, r0, #0	; 0x0
30004d78:	e2e11000 	rsc	r1, r1, #0	; 0x0
30004d7c:	e3510601 	cmp	r1, #1048576	; 0x100000
30004d80:	3a00000e 	bcc	30004dc0 <__adddf3+0x130>
30004d84:	e3510602 	cmp	r1, #2097152	; 0x200000
30004d88:	3a000006 	bcc	30004da8 <__adddf3+0x118>
30004d8c:	e1b010a1 	lsrs	r1, r1, #1
30004d90:	e1b00060 	rrxs	r0, r0
30004d94:	e1a0c06c 	rrx	ip, ip
30004d98:	e2844001 	add	r4, r4, #1	; 0x1
30004d9c:	e1a02a84 	lsl	r2, r4, #21
30004da0:	e3720501 	cmn	r2, #4194304	; 0x400000
30004da4:	2a000055 	bcs	30004f00 <__adddf3+0x270>
30004da8:	e35c0102 	cmp	ip, #-2147483648	; 0x80000000
30004dac:	01b0c0a0 	lsrseq	ip, r0, #1
30004db0:	e2b00000 	adcs	r0, r0, #0	; 0x0
30004db4:	e0a11a04 	adc	r1, r1, r4, lsl #20
30004db8:	e1811005 	orr	r1, r1, r5
30004dbc:	e8bd8030 	pop	{r4, r5, pc}
30004dc0:	e1b0c08c 	lsls	ip, ip, #1
30004dc4:	e0b00000 	adcs	r0, r0, r0
30004dc8:	e0a11001 	adc	r1, r1, r1
30004dcc:	e3110601 	tst	r1, #1048576	; 0x100000
30004dd0:	e2444001 	sub	r4, r4, #1	; 0x1
30004dd4:	1afffff3 	bne	30004da8 <__adddf3+0x118>
30004dd8:	e3310000 	teq	r1, #0	; 0x0
30004ddc:	01a01000 	moveq	r1, r0
30004de0:	03a00000 	moveq	r0, #0	; 0x0
30004de4:	e16f3f11 	clz	r3, r1
30004de8:	02833020 	addeq	r3, r3, #32	; 0x20
30004dec:	e243300b 	sub	r3, r3, #11	; 0xb
30004df0:	e2532020 	subs	r2, r3, #32	; 0x20
30004df4:	aa000007 	bge	30004e18 <__adddf3+0x188>
30004df8:	e292200c 	adds	r2, r2, #12	; 0xc
30004dfc:	da000004 	ble	30004e14 <__adddf3+0x184>
30004e00:	e282c014 	add	ip, r2, #20	; 0x14
30004e04:	e262200c 	rsb	r2, r2, #12	; 0xc
30004e08:	e1a00c11 	lsl	r0, r1, ip
30004e0c:	e1a01231 	lsr	r1, r1, r2
30004e10:	ea000004 	b	30004e28 <__adddf3+0x198>
30004e14:	e2822014 	add	r2, r2, #20	; 0x14
30004e18:	d262c020 	rsble	ip, r2, #32	; 0x20
30004e1c:	e1a01211 	lsl	r1, r1, r2
30004e20:	d1811c30 	orrle	r1, r1, r0, lsr ip
30004e24:	d1a00210 	lslle	r0, r0, r2
30004e28:	e0544003 	subs	r4, r4, r3
30004e2c:	a0811a04 	addge	r1, r1, r4, lsl #20
30004e30:	a1811005 	orrge	r1, r1, r5
30004e34:	a8bd8030 	popge	{r4, r5, pc}
30004e38:	e1e04004 	mvn	r4, r4
30004e3c:	e254401f 	subs	r4, r4, #31	; 0x1f
30004e40:	aa00000d 	bge	30004e7c <__adddf3+0x1ec>
30004e44:	e294400c 	adds	r4, r4, #12	; 0xc
30004e48:	ca000005 	bgt	30004e64 <__adddf3+0x1d4>
30004e4c:	e2844014 	add	r4, r4, #20	; 0x14
30004e50:	e2642020 	rsb	r2, r4, #32	; 0x20
30004e54:	e1a00430 	lsr	r0, r0, r4
30004e58:	e1800211 	orr	r0, r0, r1, lsl r2
30004e5c:	e1851431 	orr	r1, r5, r1, lsr r4
30004e60:	e8bd8030 	pop	{r4, r5, pc}
30004e64:	e264400c 	rsb	r4, r4, #12	; 0xc
30004e68:	e2642020 	rsb	r2, r4, #32	; 0x20
30004e6c:	e1a00230 	lsr	r0, r0, r2
30004e70:	e1800411 	orr	r0, r0, r1, lsl r4
30004e74:	e1a01005 	mov	r1, r5
30004e78:	e8bd8030 	pop	{r4, r5, pc}
30004e7c:	e1a00431 	lsr	r0, r1, r4
30004e80:	e1a01005 	mov	r1, r5
30004e84:	e8bd8030 	pop	{r4, r5, pc}
30004e88:	e3340000 	teq	r4, #0	; 0x0
30004e8c:	e2233601 	eor	r3, r3, #1048576	; 0x100000
30004e90:	02211601 	eoreq	r1, r1, #1048576	; 0x100000
30004e94:	02844001 	addeq	r4, r4, #1	; 0x1
30004e98:	12455001 	subne	r5, r5, #1	; 0x1
30004e9c:	eaffffa1 	b	30004d28 <__adddf3+0x98>
30004ea0:	e1f0cac4 	mvns	ip, r4, asr #21
30004ea4:	11f0cac5 	mvnsne	ip, r5, asr #21
30004ea8:	0a000018 	beq	30004f10 <__adddf3+0x280>
30004eac:	e1340005 	teq	r4, r5
30004eb0:	01300002 	teqeq	r0, r2
30004eb4:	0a000003 	beq	30004ec8 <__adddf3+0x238>
30004eb8:	e194c000 	orrs	ip, r4, r0
30004ebc:	01a01003 	moveq	r1, r3
30004ec0:	01a00002 	moveq	r0, r2
30004ec4:	e8bd8030 	pop	{r4, r5, pc}
30004ec8:	e1310003 	teq	r1, r3
30004ecc:	13a01000 	movne	r1, #0	; 0x0
30004ed0:	13a00000 	movne	r0, #0	; 0x0
30004ed4:	18bd8030 	popne	{r4, r5, pc}
30004ed8:	e1b0caa4 	lsrs	ip, r4, #21
30004edc:	1a000003 	bne	30004ef0 <__adddf3+0x260>
30004ee0:	e1b00080 	lsls	r0, r0, #1
30004ee4:	e0b11001 	adcs	r1, r1, r1
30004ee8:	23811102 	orrcs	r1, r1, #-2147483648	; 0x80000000
30004eec:	e8bd8030 	pop	{r4, r5, pc}
30004ef0:	e2944501 	adds	r4, r4, #4194304	; 0x400000
30004ef4:	32811601 	addcc	r1, r1, #1048576	; 0x100000
30004ef8:	38bd8030 	popcc	{r4, r5, pc}
30004efc:	e2015102 	and	r5, r1, #-2147483648	; 0x80000000
30004f00:	e385147f 	orr	r1, r5, #2130706432	; 0x7f000000
30004f04:	e381160f 	orr	r1, r1, #15728640	; 0xf00000
30004f08:	e3a00000 	mov	r0, #0	; 0x0
30004f0c:	e8bd8030 	pop	{r4, r5, pc}
30004f10:	e1f0cac4 	mvns	ip, r4, asr #21
30004f14:	11a01003 	movne	r1, r3
30004f18:	11a00002 	movne	r0, r2
30004f1c:	01f0cac5 	mvnseq	ip, r5, asr #21
30004f20:	11a03001 	movne	r3, r1
30004f24:	11a02000 	movne	r2, r0
30004f28:	e1904601 	orrs	r4, r0, r1, lsl #12
30004f2c:	01925603 	orrseq	r5, r2, r3, lsl #12
30004f30:	01310003 	teqeq	r1, r3
30004f34:	13811702 	orrne	r1, r1, #524288	; 0x80000
30004f38:	e8bd8030 	pop	{r4, r5, pc}

30004f3c <__aeabi_ui2d>:
30004f3c:	e3300000 	teq	r0, #0	; 0x0
30004f40:	03a01000 	moveq	r1, #0	; 0x0
30004f44:	012fff1e 	bxeq	lr
30004f48:	e92d4030 	push	{r4, r5, lr}
30004f4c:	e3a04b01 	mov	r4, #1024	; 0x400
30004f50:	e2844032 	add	r4, r4, #50	; 0x32
30004f54:	e3a05000 	mov	r5, #0	; 0x0
30004f58:	e3a01000 	mov	r1, #0	; 0x0
30004f5c:	eaffff9d 	b	30004dd8 <__adddf3+0x148>

30004f60 <__aeabi_i2d>:
30004f60:	e3300000 	teq	r0, #0	; 0x0
30004f64:	03a01000 	moveq	r1, #0	; 0x0
30004f68:	012fff1e 	bxeq	lr
30004f6c:	e92d4030 	push	{r4, r5, lr}
30004f70:	e3a04b01 	mov	r4, #1024	; 0x400
30004f74:	e2844032 	add	r4, r4, #50	; 0x32
30004f78:	e2105102 	ands	r5, r0, #-2147483648	; 0x80000000
30004f7c:	42600000 	rsbmi	r0, r0, #0	; 0x0
30004f80:	e3a01000 	mov	r1, #0	; 0x0
30004f84:	eaffff93 	b	30004dd8 <__adddf3+0x148>

30004f88 <__aeabi_f2d>:
30004f88:	e1b02080 	lsls	r2, r0, #1
30004f8c:	e1a011c2 	asr	r1, r2, #3
30004f90:	e1a01061 	rrx	r1, r1
30004f94:	e1a00e02 	lsl	r0, r2, #28
30004f98:	121234ff 	andsne	r3, r2, #-16777216	; 0xff000000
30004f9c:	133304ff 	teqne	r3, #-16777216	; 0xff000000
30004fa0:	1221130e 	eorne	r1, r1, #939524096	; 0x38000000
30004fa4:	112fff1e 	bxne	lr
30004fa8:	e3320000 	teq	r2, #0	; 0x0
30004fac:	133304ff 	teqne	r3, #-16777216	; 0xff000000
30004fb0:	012fff1e 	bxeq	lr
30004fb4:	e92d4030 	push	{r4, r5, lr}
30004fb8:	e3a04d0e 	mov	r4, #896	; 0x380
30004fbc:	e2015102 	and	r5, r1, #-2147483648	; 0x80000000
30004fc0:	e3c11102 	bic	r1, r1, #-2147483648	; 0x80000000
30004fc4:	eaffff83 	b	30004dd8 <__adddf3+0x148>

30004fc8 <__aeabi_ul2d>:
30004fc8:	e1902001 	orrs	r2, r0, r1
30004fcc:	012fff1e 	bxeq	lr
30004fd0:	e92d4030 	push	{r4, r5, lr}
30004fd4:	e3a05000 	mov	r5, #0	; 0x0
30004fd8:	ea000006 	b	30004ff8 <__aeabi_l2d+0x1c>

30004fdc <__aeabi_l2d>:
30004fdc:	e1902001 	orrs	r2, r0, r1
30004fe0:	012fff1e 	bxeq	lr
30004fe4:	e92d4030 	push	{r4, r5, lr}
30004fe8:	e2115102 	ands	r5, r1, #-2147483648	; 0x80000000
30004fec:	5a000001 	bpl	30004ff8 <__aeabi_l2d+0x1c>
30004ff0:	e2700000 	rsbs	r0, r0, #0	; 0x0
30004ff4:	e2e11000 	rsc	r1, r1, #0	; 0x0
30004ff8:	e3a04b01 	mov	r4, #1024	; 0x400
30004ffc:	e2844032 	add	r4, r4, #50	; 0x32
30005000:	e1b0cb21 	lsrs	ip, r1, #22
30005004:	0affff5c 	beq	30004d7c <__adddf3+0xec>
30005008:	e3a02003 	mov	r2, #3	; 0x3
3000500c:	e1b0c1ac 	lsrs	ip, ip, #3
30005010:	12822003 	addne	r2, r2, #3	; 0x3
30005014:	e1b0c1ac 	lsrs	ip, ip, #3
30005018:	12822003 	addne	r2, r2, #3	; 0x3
3000501c:	e08221ac 	add	r2, r2, ip, lsr #3
30005020:	e2623020 	rsb	r3, r2, #32	; 0x20
30005024:	e1a0c310 	lsl	ip, r0, r3
30005028:	e1a00230 	lsr	r0, r0, r2
3000502c:	e1800311 	orr	r0, r0, r1, lsl r3
30005030:	e1a01231 	lsr	r1, r1, r2
30005034:	e0844002 	add	r4, r4, r2
30005038:	eaffff4f 	b	30004d7c <__adddf3+0xec>

3000503c <__aeabi_d2iz>:
3000503c:	e1a02081 	lsl	r2, r1, #1
30005040:	e2922602 	adds	r2, r2, #2097152	; 0x200000
30005044:	2a00000c 	bcs	3000507c <__aeabi_d2iz+0x40>
30005048:	5a000009 	bpl	30005074 <__aeabi_d2iz+0x38>
3000504c:	e3e03e3e 	mvn	r3, #992	; 0x3e0
30005050:	e0532ac2 	subs	r2, r3, r2, asr #21
30005054:	9a00000a 	bls	30005084 <__aeabi_d2iz+0x48>
30005058:	e1a03581 	lsl	r3, r1, #11
3000505c:	e3833102 	orr	r3, r3, #-2147483648	; 0x80000000
30005060:	e1833aa0 	orr	r3, r3, r0, lsr #21
30005064:	e3110102 	tst	r1, #-2147483648	; 0x80000000
30005068:	e1a00233 	lsr	r0, r3, r2
3000506c:	12600000 	rsbne	r0, r0, #0	; 0x0
30005070:	e12fff1e 	bx	lr
30005074:	e3a00000 	mov	r0, #0	; 0x0
30005078:	e12fff1e 	bx	lr
3000507c:	e1900601 	orrs	r0, r0, r1, lsl #12
30005080:	1a000002 	bne	30005090 <__aeabi_d2iz+0x54>
30005084:	e2110102 	ands	r0, r1, #-2147483648	; 0x80000000
30005088:	03e00102 	mvneq	r0, #-2147483648	; 0x80000000
3000508c:	e12fff1e 	bx	lr
30005090:	e3a00000 	mov	r0, #0	; 0x0
30005094:	e12fff1e 	bx	lr

30005098 <__aeabi_frsub>:
30005098:	e2200102 	eor	r0, r0, #-2147483648	; 0x80000000
3000509c:	ea000000 	b	300050a4 <__addsf3>

300050a0 <__aeabi_fsub>:
300050a0:	e2211102 	eor	r1, r1, #-2147483648	; 0x80000000

300050a4 <__addsf3>:
300050a4:	e1b02080 	lsls	r2, r0, #1
300050a8:	11b03081 	lslsne	r3, r1, #1
300050ac:	11320003 	teqne	r2, r3
300050b0:	11f0cc42 	mvnsne	ip, r2, asr #24
300050b4:	11f0cc43 	mvnsne	ip, r3, asr #24
300050b8:	0a00003c 	beq	300051b0 <__addsf3+0x10c>
300050bc:	e1a02c22 	lsr	r2, r2, #24
300050c0:	e0723c23 	rsbs	r3, r2, r3, lsr #24
300050c4:	c0822003 	addgt	r2, r2, r3
300050c8:	c0201001 	eorgt	r1, r0, r1
300050cc:	c0210000 	eorgt	r0, r1, r0
300050d0:	c0201001 	eorgt	r1, r0, r1
300050d4:	b2633000 	rsblt	r3, r3, #0	; 0x0
300050d8:	e3530019 	cmp	r3, #25	; 0x19
300050dc:	812fff1e 	bxhi	lr
300050e0:	e3100102 	tst	r0, #-2147483648	; 0x80000000
300050e4:	e3800502 	orr	r0, r0, #8388608	; 0x800000
300050e8:	e3c004ff 	bic	r0, r0, #-16777216	; 0xff000000
300050ec:	12600000 	rsbne	r0, r0, #0	; 0x0
300050f0:	e3110102 	tst	r1, #-2147483648	; 0x80000000
300050f4:	e3811502 	orr	r1, r1, #8388608	; 0x800000
300050f8:	e3c114ff 	bic	r1, r1, #-16777216	; 0xff000000
300050fc:	12611000 	rsbne	r1, r1, #0	; 0x0
30005100:	e1320003 	teq	r2, r3
30005104:	0a000023 	beq	30005198 <__addsf3+0xf4>
30005108:	e2422001 	sub	r2, r2, #1	; 0x1
3000510c:	e0900351 	adds	r0, r0, r1, asr r3
30005110:	e2633020 	rsb	r3, r3, #32	; 0x20
30005114:	e1a01311 	lsl	r1, r1, r3
30005118:	e2003102 	and	r3, r0, #-2147483648	; 0x80000000
3000511c:	5a000001 	bpl	30005128 <__addsf3+0x84>
30005120:	e2711000 	rsbs	r1, r1, #0	; 0x0
30005124:	e2e00000 	rsc	r0, r0, #0	; 0x0
30005128:	e3500502 	cmp	r0, #8388608	; 0x800000
3000512c:	3a00000b 	bcc	30005160 <__addsf3+0xbc>
30005130:	e3500401 	cmp	r0, #16777216	; 0x1000000
30005134:	3a000004 	bcc	3000514c <__addsf3+0xa8>
30005138:	e1b000a0 	lsrs	r0, r0, #1
3000513c:	e1a01061 	rrx	r1, r1
30005140:	e2822001 	add	r2, r2, #1	; 0x1
30005144:	e35200fe 	cmp	r2, #254	; 0xfe
30005148:	2a00002d 	bcs	30005204 <__addsf3+0x160>
3000514c:	e3510102 	cmp	r1, #-2147483648	; 0x80000000
30005150:	e0a00b82 	adc	r0, r0, r2, lsl #23
30005154:	03c00001 	biceq	r0, r0, #1	; 0x1
30005158:	e1800003 	orr	r0, r0, r3
3000515c:	e12fff1e 	bx	lr
30005160:	e1b01081 	lsls	r1, r1, #1
30005164:	e0a00000 	adc	r0, r0, r0
30005168:	e3100502 	tst	r0, #8388608	; 0x800000
3000516c:	e2422001 	sub	r2, r2, #1	; 0x1
30005170:	1afffff5 	bne	3000514c <__addsf3+0xa8>
30005174:	e16fcf10 	clz	ip, r0
30005178:	e24cc008 	sub	ip, ip, #8	; 0x8
3000517c:	e052200c 	subs	r2, r2, ip
30005180:	e1a00c10 	lsl	r0, r0, ip
30005184:	a0800b82 	addge	r0, r0, r2, lsl #23
30005188:	b2622000 	rsblt	r2, r2, #0	; 0x0
3000518c:	a1800003 	orrge	r0, r0, r3
30005190:	b1830230 	orrlt	r0, r3, r0, lsr r2
30005194:	e12fff1e 	bx	lr
30005198:	e3320000 	teq	r2, #0	; 0x0
3000519c:	e2211502 	eor	r1, r1, #8388608	; 0x800000
300051a0:	02200502 	eoreq	r0, r0, #8388608	; 0x800000
300051a4:	02822001 	addeq	r2, r2, #1	; 0x1
300051a8:	12433001 	subne	r3, r3, #1	; 0x1
300051ac:	eaffffd5 	b	30005108 <__addsf3+0x64>
300051b0:	e1a03081 	lsl	r3, r1, #1
300051b4:	e1f0cc42 	mvns	ip, r2, asr #24
300051b8:	11f0cc43 	mvnsne	ip, r3, asr #24
300051bc:	0a000013 	beq	30005210 <__addsf3+0x16c>
300051c0:	e1320003 	teq	r2, r3
300051c4:	0a000002 	beq	300051d4 <__addsf3+0x130>
300051c8:	e3320000 	teq	r2, #0	; 0x0
300051cc:	01a00001 	moveq	r0, r1
300051d0:	e12fff1e 	bx	lr
300051d4:	e1300001 	teq	r0, r1
300051d8:	13a00000 	movne	r0, #0	; 0x0
300051dc:	112fff1e 	bxne	lr
300051e0:	e31204ff 	tst	r2, #-16777216	; 0xff000000
300051e4:	1a000002 	bne	300051f4 <__addsf3+0x150>
300051e8:	e1b00080 	lsls	r0, r0, #1
300051ec:	23800102 	orrcs	r0, r0, #-2147483648	; 0x80000000
300051f0:	e12fff1e 	bx	lr
300051f4:	e2922402 	adds	r2, r2, #33554432	; 0x2000000
300051f8:	32800502 	addcc	r0, r0, #8388608	; 0x800000
300051fc:	312fff1e 	bxcc	lr
30005200:	e2003102 	and	r3, r0, #-2147483648	; 0x80000000
30005204:	e383047f 	orr	r0, r3, #2130706432	; 0x7f000000
30005208:	e3800502 	orr	r0, r0, #8388608	; 0x800000
3000520c:	e12fff1e 	bx	lr
30005210:	e1f02c42 	mvns	r2, r2, asr #24
30005214:	11a00001 	movne	r0, r1
30005218:	01f03c43 	mvnseq	r3, r3, asr #24
3000521c:	11a01000 	movne	r1, r0
30005220:	e1b02480 	lsls	r2, r0, #9
30005224:	01b03481 	lslseq	r3, r1, #9
30005228:	01300001 	teqeq	r0, r1
3000522c:	13800501 	orrne	r0, r0, #4194304	; 0x400000
30005230:	e12fff1e 	bx	lr

30005234 <__aeabi_ui2f>:
30005234:	e3a03000 	mov	r3, #0	; 0x0
30005238:	ea000001 	b	30005244 <__aeabi_i2f+0x8>

3000523c <__aeabi_i2f>:
3000523c:	e2103102 	ands	r3, r0, #-2147483648	; 0x80000000
30005240:	42600000 	rsbmi	r0, r0, #0	; 0x0
30005244:	e1b0c000 	movs	ip, r0
30005248:	012fff1e 	bxeq	lr
3000524c:	e383344b 	orr	r3, r3, #1258291200	; 0x4b000000
30005250:	e1a01000 	mov	r1, r0
30005254:	e3a00000 	mov	r0, #0	; 0x0
30005258:	ea00000f 	b	3000529c <__aeabi_l2f+0x30>

3000525c <__aeabi_ul2f>:
3000525c:	e1902001 	orrs	r2, r0, r1
30005260:	012fff1e 	bxeq	lr
30005264:	e3a03000 	mov	r3, #0	; 0x0
30005268:	ea000005 	b	30005284 <__aeabi_l2f+0x18>

3000526c <__aeabi_l2f>:
3000526c:	e1902001 	orrs	r2, r0, r1
30005270:	012fff1e 	bxeq	lr
30005274:	e2113102 	ands	r3, r1, #-2147483648	; 0x80000000
30005278:	5a000001 	bpl	30005284 <__aeabi_l2f+0x18>
3000527c:	e2700000 	rsbs	r0, r0, #0	; 0x0
30005280:	e2e11000 	rsc	r1, r1, #0	; 0x0
30005284:	e1b0c001 	movs	ip, r1
30005288:	01a0c000 	moveq	ip, r0
3000528c:	01a01000 	moveq	r1, r0
30005290:	03a00000 	moveq	r0, #0	; 0x0
30005294:	e383345b 	orr	r3, r3, #1526726656	; 0x5b000000
30005298:	02433201 	subeq	r3, r3, #268435456	; 0x10000000
3000529c:	e2433502 	sub	r3, r3, #8388608	; 0x800000
300052a0:	e16f2f1c 	clz	r2, ip
300052a4:	e2522008 	subs	r2, r2, #8	; 0x8
300052a8:	e0433b82 	sub	r3, r3, r2, lsl #23
300052ac:	ba000006 	blt	300052cc <__aeabi_l2f+0x60>
300052b0:	e0833211 	add	r3, r3, r1, lsl r2
300052b4:	e1a0c210 	lsl	ip, r0, r2
300052b8:	e2622020 	rsb	r2, r2, #32	; 0x20
300052bc:	e35c0102 	cmp	ip, #-2147483648	; 0x80000000
300052c0:	e0a30230 	adc	r0, r3, r0, lsr r2
300052c4:	03c00001 	biceq	r0, r0, #1	; 0x1
300052c8:	e12fff1e 	bx	lr
300052cc:	e2822020 	add	r2, r2, #32	; 0x20
300052d0:	e1a0c211 	lsl	ip, r1, r2
300052d4:	e2622020 	rsb	r2, r2, #32	; 0x20
300052d8:	e190008c 	orrs	r0, r0, ip, lsl #1
300052dc:	e0a30231 	adc	r0, r3, r1, lsr r2
300052e0:	01c00fac 	biceq	r0, r0, ip, lsr #31
300052e4:	e12fff1e 	bx	lr

300052e8 <__aeabi_fmul>:
300052e8:	e3a0c0ff 	mov	ip, #255	; 0xff
300052ec:	e01c2ba0 	ands	r2, ip, r0, lsr #23
300052f0:	101c3ba1 	andsne	r3, ip, r1, lsr #23
300052f4:	1132000c 	teqne	r2, ip
300052f8:	1133000c 	teqne	r3, ip
300052fc:	0a00003e 	beq	300053fc <__aeabi_fmul+0x114>
30005300:	e0822003 	add	r2, r2, r3
30005304:	e020c001 	eor	ip, r0, r1
30005308:	e1b00480 	lsls	r0, r0, #9
3000530c:	11b01481 	lslsne	r1, r1, #9
30005310:	0a000010 	beq	30005358 <__aeabi_fmul+0x70>
30005314:	e3a03302 	mov	r3, #134217728	; 0x8000000
30005318:	e18302a0 	orr	r0, r3, r0, lsr #5
3000531c:	e18312a1 	orr	r1, r3, r1, lsr #5
30005320:	e0813190 	umull	r3, r1, r0, r1
30005324:	e20c0102 	and	r0, ip, #-2147483648	; 0x80000000
30005328:	e3510502 	cmp	r1, #8388608	; 0x800000
3000532c:	31a01081 	lslcc	r1, r1, #1
30005330:	31811fa3 	orrcc	r1, r1, r3, lsr #31
30005334:	31a03083 	lslcc	r3, r3, #1
30005338:	e1800001 	orr	r0, r0, r1
3000533c:	e2c2207f 	sbc	r2, r2, #127	; 0x7f
30005340:	e35200fd 	cmp	r2, #253	; 0xfd
30005344:	8a00000f 	bhi	30005388 <__aeabi_fmul+0xa0>
30005348:	e3530102 	cmp	r3, #-2147483648	; 0x80000000
3000534c:	e0a00b82 	adc	r0, r0, r2, lsl #23
30005350:	03c00001 	biceq	r0, r0, #1	; 0x1
30005354:	e12fff1e 	bx	lr
30005358:	e3300000 	teq	r0, #0	; 0x0
3000535c:	e20cc102 	and	ip, ip, #-2147483648	; 0x80000000
30005360:	01a01481 	lsleq	r1, r1, #9
30005364:	e18c04a0 	orr	r0, ip, r0, lsr #9
30005368:	e18004a1 	orr	r0, r0, r1, lsr #9
3000536c:	e252207f 	subs	r2, r2, #127	; 0x7f
30005370:	c27230ff 	rsbsgt	r3, r2, #255	; 0xff
30005374:	c1800b82 	orrgt	r0, r0, r2, lsl #23
30005378:	c12fff1e 	bxgt	lr
3000537c:	e3800502 	orr	r0, r0, #8388608	; 0x800000
30005380:	e3a03000 	mov	r3, #0	; 0x0
30005384:	e2522001 	subs	r2, r2, #1	; 0x1
30005388:	ca000035 	bgt	30005464 <__aeabi_fmul+0x17c>
3000538c:	e3720019 	cmn	r2, #25	; 0x19
30005390:	d2000102 	andle	r0, r0, #-2147483648	; 0x80000000
30005394:	d12fff1e 	bxle	lr
30005398:	e2622000 	rsb	r2, r2, #0	; 0x0
3000539c:	e1b01080 	lsls	r1, r0, #1
300053a0:	e1a01231 	lsr	r1, r1, r2
300053a4:	e2622020 	rsb	r2, r2, #32	; 0x20
300053a8:	e1a0c210 	lsl	ip, r0, r2
300053ac:	e1b00061 	rrxs	r0, r1
300053b0:	e2a00000 	adc	r0, r0, #0	; 0x0
300053b4:	e193308c 	orrs	r3, r3, ip, lsl #1
300053b8:	01c00fac 	biceq	r0, r0, ip, lsr #31
300053bc:	e12fff1e 	bx	lr
300053c0:	e3320000 	teq	r2, #0	; 0x0
300053c4:	e200c102 	and	ip, r0, #-2147483648	; 0x80000000
300053c8:	01a00080 	lsleq	r0, r0, #1
300053cc:	03100502 	tsteq	r0, #8388608	; 0x800000
300053d0:	02422001 	subeq	r2, r2, #1	; 0x1
300053d4:	0afffffb 	beq	300053c8 <__aeabi_fmul+0xe0>
300053d8:	e180000c 	orr	r0, r0, ip
300053dc:	e3330000 	teq	r3, #0	; 0x0
300053e0:	e201c102 	and	ip, r1, #-2147483648	; 0x80000000
300053e4:	01a01081 	lsleq	r1, r1, #1
300053e8:	03110502 	tsteq	r1, #8388608	; 0x800000
300053ec:	02433001 	subeq	r3, r3, #1	; 0x1
300053f0:	0afffffb 	beq	300053e4 <__aeabi_fmul+0xfc>
300053f4:	e181100c 	orr	r1, r1, ip
300053f8:	eaffffc0 	b	30005300 <__aeabi_fmul+0x18>
300053fc:	e00c3ba1 	and	r3, ip, r1, lsr #23
30005400:	e132000c 	teq	r2, ip
30005404:	1133000c 	teqne	r3, ip
30005408:	0a000005 	beq	30005424 <__aeabi_fmul+0x13c>
3000540c:	e3d0c102 	bics	ip, r0, #-2147483648	; 0x80000000
30005410:	13d1c102 	bicsne	ip, r1, #-2147483648	; 0x80000000
30005414:	1affffe9 	bne	300053c0 <__aeabi_fmul+0xd8>
30005418:	e0200001 	eor	r0, r0, r1
3000541c:	e2000102 	and	r0, r0, #-2147483648	; 0x80000000
30005420:	e12fff1e 	bx	lr
30005424:	e3300000 	teq	r0, #0	; 0x0
30005428:	13300102 	teqne	r0, #-2147483648	; 0x80000000
3000542c:	01a00001 	moveq	r0, r1
30005430:	13310000 	teqne	r1, #0	; 0x0
30005434:	13310102 	teqne	r1, #-2147483648	; 0x80000000
30005438:	0a00000d 	beq	30005474 <__aeabi_fmul+0x18c>
3000543c:	e132000c 	teq	r2, ip
30005440:	1a000001 	bne	3000544c <__aeabi_fmul+0x164>
30005444:	e1b02480 	lsls	r2, r0, #9
30005448:	1a000009 	bne	30005474 <__aeabi_fmul+0x18c>
3000544c:	e133000c 	teq	r3, ip
30005450:	1a000002 	bne	30005460 <__aeabi_fmul+0x178>
30005454:	e1b03481 	lsls	r3, r1, #9
30005458:	11a00001 	movne	r0, r1
3000545c:	1a000004 	bne	30005474 <__aeabi_fmul+0x18c>
30005460:	e0200001 	eor	r0, r0, r1
30005464:	e2000102 	and	r0, r0, #-2147483648	; 0x80000000
30005468:	e380047f 	orr	r0, r0, #2130706432	; 0x7f000000
3000546c:	e3800502 	orr	r0, r0, #8388608	; 0x800000
30005470:	e12fff1e 	bx	lr
30005474:	e380047f 	orr	r0, r0, #2130706432	; 0x7f000000
30005478:	e3800503 	orr	r0, r0, #12582912	; 0xc00000
3000547c:	e12fff1e 	bx	lr

30005480 <__aeabi_fdiv>:
30005480:	e3a0c0ff 	mov	ip, #255	; 0xff
30005484:	e01c2ba0 	ands	r2, ip, r0, lsr #23
30005488:	101c3ba1 	andsne	r3, ip, r1, lsr #23
3000548c:	1132000c 	teqne	r2, ip
30005490:	1133000c 	teqne	r3, ip
30005494:	0a00003a 	beq	30005584 <__aeabi_fdiv+0x104>
30005498:	e0422003 	sub	r2, r2, r3
3000549c:	e020c001 	eor	ip, r0, r1
300054a0:	e1b01481 	lsls	r1, r1, #9
300054a4:	e1a00480 	lsl	r0, r0, #9
300054a8:	0a00001c 	beq	30005520 <__aeabi_fdiv+0xa0>
300054ac:	e3a03201 	mov	r3, #268435456	; 0x10000000
300054b0:	e1831221 	orr	r1, r3, r1, lsr #4
300054b4:	e1833220 	orr	r3, r3, r0, lsr #4
300054b8:	e20c0102 	and	r0, ip, #-2147483648	; 0x80000000
300054bc:	e1530001 	cmp	r3, r1
300054c0:	31a03083 	lslcc	r3, r3, #1
300054c4:	e2a2207d 	adc	r2, r2, #125	; 0x7d
300054c8:	e3a0c502 	mov	ip, #8388608	; 0x800000
300054cc:	e1530001 	cmp	r3, r1
300054d0:	20433001 	subcs	r3, r3, r1
300054d4:	2180000c 	orrcs	r0, r0, ip
300054d8:	e15300a1 	cmp	r3, r1, lsr #1
300054dc:	204330a1 	subcs	r3, r3, r1, lsr #1
300054e0:	218000ac 	orrcs	r0, r0, ip, lsr #1
300054e4:	e1530121 	cmp	r3, r1, lsr #2
300054e8:	20433121 	subcs	r3, r3, r1, lsr #2
300054ec:	2180012c 	orrcs	r0, r0, ip, lsr #2
300054f0:	e15301a1 	cmp	r3, r1, lsr #3
300054f4:	204331a1 	subcs	r3, r3, r1, lsr #3
300054f8:	218001ac 	orrcs	r0, r0, ip, lsr #3
300054fc:	e1b03203 	lsls	r3, r3, #4
30005500:	11b0c22c 	lsrsne	ip, ip, #4
30005504:	1afffff0 	bne	300054cc <__aeabi_fdiv+0x4c>
30005508:	e35200fd 	cmp	r2, #253	; 0xfd
3000550c:	8affff9d 	bhi	30005388 <__aeabi_fmul+0xa0>
30005510:	e1530001 	cmp	r3, r1
30005514:	e0a00b82 	adc	r0, r0, r2, lsl #23
30005518:	03c00001 	biceq	r0, r0, #1	; 0x1
3000551c:	e12fff1e 	bx	lr
30005520:	e20cc102 	and	ip, ip, #-2147483648	; 0x80000000
30005524:	e18c04a0 	orr	r0, ip, r0, lsr #9
30005528:	e292207f 	adds	r2, r2, #127	; 0x7f
3000552c:	c27230ff 	rsbsgt	r3, r2, #255	; 0xff
30005530:	c1800b82 	orrgt	r0, r0, r2, lsl #23
30005534:	c12fff1e 	bxgt	lr
30005538:	e3800502 	orr	r0, r0, #8388608	; 0x800000
3000553c:	e3a03000 	mov	r3, #0	; 0x0
30005540:	e2522001 	subs	r2, r2, #1	; 0x1
30005544:	eaffff8f 	b	30005388 <__aeabi_fmul+0xa0>
30005548:	e3320000 	teq	r2, #0	; 0x0
3000554c:	e200c102 	and	ip, r0, #-2147483648	; 0x80000000
30005550:	01a00080 	lsleq	r0, r0, #1
30005554:	03100502 	tsteq	r0, #8388608	; 0x800000
30005558:	02422001 	subeq	r2, r2, #1	; 0x1
3000555c:	0afffffb 	beq	30005550 <__aeabi_fdiv+0xd0>
30005560:	e180000c 	orr	r0, r0, ip
30005564:	e3330000 	teq	r3, #0	; 0x0
30005568:	e201c102 	and	ip, r1, #-2147483648	; 0x80000000
3000556c:	01a01081 	lsleq	r1, r1, #1
30005570:	03110502 	tsteq	r1, #8388608	; 0x800000
30005574:	02433001 	subeq	r3, r3, #1	; 0x1
30005578:	0afffffb 	beq	3000556c <__aeabi_fdiv+0xec>
3000557c:	e181100c 	orr	r1, r1, ip
30005580:	eaffffc4 	b	30005498 <__aeabi_fdiv+0x18>
30005584:	e00c3ba1 	and	r3, ip, r1, lsr #23
30005588:	e132000c 	teq	r2, ip
3000558c:	1a000005 	bne	300055a8 <__aeabi_fdiv+0x128>
30005590:	e1b02480 	lsls	r2, r0, #9
30005594:	1affffb6 	bne	30005474 <__aeabi_fmul+0x18c>
30005598:	e133000c 	teq	r3, ip
3000559c:	1affffaf 	bne	30005460 <__aeabi_fmul+0x178>
300055a0:	e1a00001 	mov	r0, r1
300055a4:	eaffffb2 	b	30005474 <__aeabi_fmul+0x18c>
300055a8:	e133000c 	teq	r3, ip
300055ac:	1a000003 	bne	300055c0 <__aeabi_fdiv+0x140>
300055b0:	e1b03481 	lsls	r3, r1, #9
300055b4:	0affff97 	beq	30005418 <__aeabi_fmul+0x130>
300055b8:	e1a00001 	mov	r0, r1
300055bc:	eaffffac 	b	30005474 <__aeabi_fmul+0x18c>
300055c0:	e3d0c102 	bics	ip, r0, #-2147483648	; 0x80000000
300055c4:	13d1c102 	bicsne	ip, r1, #-2147483648	; 0x80000000
300055c8:	1affffde 	bne	30005548 <__aeabi_fdiv+0xc8>
300055cc:	e3d02102 	bics	r2, r0, #-2147483648	; 0x80000000
300055d0:	1affffa2 	bne	30005460 <__aeabi_fmul+0x178>
300055d4:	e3d13102 	bics	r3, r1, #-2147483648	; 0x80000000
300055d8:	1affff8e 	bne	30005418 <__aeabi_fmul+0x130>
300055dc:	eaffffa4 	b	30005474 <__aeabi_fmul+0x18c>

300055e0 <__aeabi_idiv0>:
300055e0:	e92d4002 	push	{r1, lr}
300055e4:	e3a00008 	mov	r0, #8	; 0x8
300055e8:	ebffee77 	bl	30000fcc <raise>
300055ec:	e8bd8002 	pop	{r1, pc}
Disassembly of section .rodata:

300055f0 <C.0.1262-0x24>:
300055f0:	00007830 	andeq	r7, r0, r0, lsr r8
300055f4:	0a636261 	beq	318ddf80 <_end+0x18d7380>
300055f8:	0000000d 	andeq	r0, r0, sp
300055fc:	0a333231 	beq	30cd1ec8 <_end+0xccb2c8>
30005600:	0000000d 	andeq	r0, r0, sp
30005604:	20495753 	subcs	r5, r9, r3, asr r7
30005608:	206c6176 	rsbcs	r6, ip, r6, ror r1
3000560c:	0000203d 	andeq	r2, r0, sp, lsr r0
30005610:	00000d0a 	andeq	r0, r0, sl, lsl #26

30005614 <C.0.1262>:
30005614:	22000000 	.word	0x22000000
30005618:	00000700 	.word	0x00000700
3000561c:	00000700 	.word	0x00000700
30005620:	00000700 	.word	0x00000700
30005624:	00000700 	.word	0x00000700
30005628:	00000700 	.word	0x00000700
3000562c:	00000700 	.word	0x00000700
30005630:	00018001 	.word	0x00018001
30005634:	00018001 	.word	0x00018001
30005638:	008404f5 	.word	0x008404f5
3000563c:	000000b1 	.word	0x000000b1
30005640:	00000020 	.word	0x00000020
30005644:	00000020 	.word	0x00000020

30005648 <g_Char2>:
30005648:	00000042 	.word	0x00000042
3000564c:	5f670d0a 	.word	0x5f670d0a
30005650:	203d2041 	.word	0x203d2041
30005654:	00000000 	.word	0x00000000
30005658:	00000d0a 	.word	0x00000d0a
3000565c:	65637845 	.word	0x65637845
30005660:	6f697470 	.word	0x6f697470
30005664:	6320216e 	.word	0x6320216e
30005668:	20727370 	.word	0x20727370
3000566c:	0000203d 	.word	0x0000203d
30005670:	00000020 	.word	0x00000020
30005674:	00000d0a 	.word	0x00000d0a
30005678:	20727473 	.word	0x20727473
3000567c:	7325203d 	.word	0x7325203d
30005680:	00000d0a 	.word	0x00000d0a
30005684:	646e6576 	.word	0x646e6576
30005688:	6920726f 	.word	0x6920726f
3000568c:	203d2064 	.word	0x203d2064
30005690:	78257830 	.word	0x78257830
30005694:	6564202c 	.word	0x6564202c
30005698:	65636976 	.word	0x65636976
3000569c:	20646920 	.word	0x20646920
300056a0:	7830203d 	.word	0x7830203d
300056a4:	202c7825 	.word	0x202c7825
300056a8:	20726f6e 	.word	0x20726f6e
300056ac:	657a6973 	.word	0x657a6973
300056b0:	30203d20 	.word	0x30203d20
300056b4:	2c782578 	.word	0x2c782578
300056b8:	4d642520 	.word	0x4d642520
300056bc:	00000d0a 	.word	0x00000d0a
300056c0:	636f6c42 	.word	0x636f6c42
300056c4:	65532f6b 	.word	0x65532f6b
300056c8:	726f7463 	.word	0x726f7463
300056cc:	61747320 	.word	0x61747320
300056d0:	41207472 	.word	0x41207472
300056d4:	65726464 	.word	0x65726464
300056d8:	0a3a7373 	.word	0x0a3a7373
300056dc:	0000000d 	.word	0x0000000d
300056e0:	00000d0a 	.word	0x00000d0a
300056e4:	65746e45 	.word	0x65746e45
300056e8:	68742072 	.word	0x68742072
300056ec:	64612065 	.word	0x64612065
300056f0:	73657264 	.word	0x73657264
300056f4:	666f2073 	.word	0x666f2073
300056f8:	63657320 	.word	0x63657320
300056fc:	20726f74 	.word	0x20726f74
30005700:	65206f74 	.word	0x65206f74
30005704:	65736172 	.word	0x65736172
30005708:	0000203a 	.word	0x0000203a
3000570c:	73617265 	.word	0x73617265
30005710:	20676e69 	.word	0x20676e69
30005714:	0a2e2e2e 	.word	0x0a2e2e2e
30005718:	0000000d 	.word	0x0000000d
3000571c:	65746e45 	.word	0x65746e45
30005720:	68742072 	.word	0x68742072
30005724:	64612065 	.word	0x64612065
30005728:	73657264 	.word	0x73657264
3000572c:	666f2073 	.word	0x666f2073
30005730:	63657320 	.word	0x63657320
30005734:	20726f74 	.word	0x20726f74
30005738:	77206f74 	.word	0x77206f74
3000573c:	65746972 	.word	0x65746972
30005740:	0000203a 	.word	0x0000203a
30005744:	65746e45 	.word	0x65746e45
30005748:	68742072 	.word	0x68742072
3000574c:	74732065 	.word	0x74732065
30005750:	676e6972 	.word	0x676e6972
30005754:	206f7420 	.word	0x206f7420
30005758:	74697277 	.word	0x74697277
3000575c:	00203a65 	.word	0x00203a65
30005760:	74697277 	.word	0x74697277
30005764:	20676e69 	.word	0x20676e69
30005768:	0a2e2e2e 	.word	0x0a2e2e2e
3000576c:	0000000d 	.word	0x0000000d
30005770:	65746e45 	.word	0x65746e45
30005774:	68742072 	.word	0x68742072
30005778:	64612065 	.word	0x64612065
3000577c:	73657264 	.word	0x73657264
30005780:	6f742073 	.word	0x6f742073
30005784:	61657220 	.word	0x61657220
30005788:	00203a64 	.word	0x00203a64
3000578c:	61746144 	.word	0x61746144
30005790:	0a203a20 	.word	0x0a203a20
30005794:	0000000d 	.word	0x0000000d
30005798:	78323025 	.word	0x78323025
3000579c:	00000020 	.word	0x00000020
300057a0:	3b202020 	.word	0x3b202020
300057a4:	00000020 	.word	0x00000020
300057a8:	205d735b 	.word	0x205d735b
300057ac:	6e616353 	.word	0x6e616353
300057b0:	726f6e20 	.word	0x726f6e20
300057b4:	616c6620 	.word	0x616c6620
300057b8:	0d0a6873 	.word	0x0d0a6873
300057bc:	00000000 	.word	0x00000000
300057c0:	205d655b 	.word	0x205d655b
300057c4:	73617245 	.word	0x73617245
300057c8:	6f6e2065 	.word	0x6f6e2065
300057cc:	6c662072 	.word	0x6c662072
300057d0:	0a687361 	.word	0x0a687361
300057d4:	0000000d 	.word	0x0000000d
300057d8:	205d775b 	.word	0x205d775b
300057dc:	74697257 	.word	0x74697257
300057e0:	6f6e2065 	.word	0x6f6e2065
300057e4:	6c662072 	.word	0x6c662072
300057e8:	0a687361 	.word	0x0a687361
300057ec:	0000000d 	.word	0x0000000d
300057f0:	205d725b 	.word	0x205d725b
300057f4:	64616552 	.word	0x64616552
300057f8:	726f6e20 	.word	0x726f6e20
300057fc:	616c6620 	.word	0x616c6620
30005800:	0d0a6873 	.word	0x0d0a6873
30005804:	00000000 	.word	0x00000000
30005808:	205d715b 	.word	0x205d715b
3000580c:	74697571 	.word	0x74697571
30005810:	00000d0a 	.word	0x00000d0a
30005814:	65746e45 	.word	0x65746e45
30005818:	65732072 	.word	0x65732072
3000581c:	7463656c 	.word	0x7463656c
30005820:	3a6e6f69 	.word	0x3a6e6f69
30005824:	00000020 	.word	0x00000020
30005828:	0d0a6325 	.word	0x0d0a6325
3000582c:	00000000 	.word	0x00000000
30005830:	73696854 	.word	0x73696854
30005834:	20736920 	.word	0x20736920
30005838:	2e777777 	.word	0x2e777777
3000583c:	61303031 	.word	0x61303031
30005840:	6f2e6b73 	.word	0x6f2e6b73
30005844:	20206772 	.word	0x20206772
30005848:	5f796d20 	.word	0x5f796d20
3000584c:	6e697270 	.word	0x6e697270
30005850:	74206674 	.word	0x74206674
30005854:	0a747365 	.word	0x0a747365
30005858:	0000000d 	.word	0x0000000d
3000585c:	74736574 	.word	0x74736574
30005860:	61686320 	.word	0x61686320
30005864:	20202072 	.word	0x20202072
30005868:	20202020 	.word	0x20202020
3000586c:	20202020 	.word	0x20202020
30005870:	2c63253d 	.word	0x2c63253d
30005874:	0d0a6325 	.word	0x0d0a6325
30005878:	00000000 	.word	0x00000000
3000587c:	74736574 	.word	0x74736574
30005880:	63656420 	.word	0x63656420
30005884:	6c616d69 	.word	0x6c616d69
30005888:	6d756e20 	.word	0x6d756e20
3000588c:	20726562 	.word	0x20726562
30005890:	0a64253d 	.word	0x0a64253d
30005894:	0000000d 	.word	0x0000000d
30005898:	74736574 	.word	0x74736574
3000589c:	78656820 	.word	0x78656820
300058a0:	20202020 	.word	0x20202020
300058a4:	6d756e20 	.word	0x6d756e20
300058a8:	20726562 	.word	0x20726562
300058ac:	2578303d 	.word	0x2578303d
300058b0:	000d0a78 	.word	0x000d0a78
300058b4:	74736574 	.word	0x74736574
300058b8:	72747320 	.word	0x72747320
300058bc:	20676e69 	.word	0x20676e69
300058c0:	20202020 	.word	0x20202020
300058c4:	20202020 	.word	0x20202020
300058c8:	0a73253d 	.word	0x0a73253d
300058cc:	0000000d 	.word	0x0000000d
300058d0:	2e777777 	.word	0x2e777777
300058d4:	61303031 	.word	0x61303031
300058d8:	6f2e6b73 	.word	0x6f2e6b73
300058dc:	00006772 	.word	0x00006772
300058e0:	3d6d756e 	.word	0x3d6d756e
300058e4:	64383025 	.word	0x64383025
300058e8:	00000d0a 	.word	0x00000d0a
300058ec:	3d6d756e 	.word	0x3d6d756e
300058f0:	0a643825 	.word	0x0a643825
300058f4:	0000000d 	.word	0x0000000d
300058f8:	3d6d756e 	.word	0x3d6d756e
300058fc:	30257830 	.word	0x30257830
30005900:	0d0a7838 	.word	0x0d0a7838
30005904:	00000000 	.word	0x00000000
30005908:	3d6d756e 	.word	0x3d6d756e
3000590c:	38257830 	.word	0x38257830
30005910:	000d0a78 	.word	0x000d0a78
30005914:	3d6d756e 	.word	0x3d6d756e
30005918:	30257830 	.word	0x30257830
3000591c:	0d0a7832 	.word	0x0d0a7832
30005920:	00000000 	.word	0x00000000
30005924:	3d6d756e 	.word	0x3d6d756e
30005928:	32257830 	.word	0x32257830
3000592c:	000d0a78 	.word	0x000d0a78
30005930:	3d6d756e 	.word	0x3d6d756e
30005934:	64353025 	.word	0x64353025
30005938:	00000d0a 	.word	0x00000d0a
3000593c:	3d6d756e 	.word	0x3d6d756e
30005940:	0a643525 	.word	0x0a643525
30005944:	0000000d 	.word	0x0000000d
30005948:	5f64636c 	.word	0x5f64636c
3000594c:	00332e34 	.word	0x00332e34
30005950:	32633373 	.word	0x32633373
30005954:	00303434 	.word	0x00303434
30005958:	5f64636c 	.word	0x5f64636c
3000595c:	00332e34 	.word	0x00332e34
30005960:	2e777777 	.word	0x2e777777
30005964:	61303031 	.word	0x61303031
30005968:	6e2e6b73 	.word	0x6e2e6b73
3000596c:	0d0a7465 	.word	0x0d0a7465
30005970:	61303031 	.word	0x61303031
30005974:	742e6b73 	.word	0x742e6b73
30005978:	61626f61 	.word	0x61626f61
3000597c:	6f632e6f 	.word	0x6f632e6f
30005980:	0000006d 	.word	0x0000006d
30005984:	32633373 	.word	0x32633373
30005988:	00303434 	.word	0x00303434

3000598c <fontdata_8x16>:
	...
3000599c:	817e0000 	.word	0x817e0000
300059a0:	bd8181a5 	.word	0xbd8181a5
300059a4:	7e818199 	.word	0x7e818199
300059a8:	00000000 	.word	0x00000000
300059ac:	ff7e0000 	.word	0xff7e0000
300059b0:	c3ffffdb 	.word	0xc3ffffdb
300059b4:	7effffe7 	.word	0x7effffe7
	...
300059c0:	fefefe6c 	.word	0xfefefe6c
300059c4:	10387cfe 	.word	0x10387cfe
	...
300059d0:	fe7c3810 	.word	0xfe7c3810
300059d4:	0010387c 	.word	0x0010387c
300059d8:	00000000 	.word	0x00000000
300059dc:	18000000 	.word	0x18000000
300059e0:	e7e73c3c 	.word	0xe7e73c3c
300059e4:	3c1818e7 	.word	0x3c1818e7
300059e8:	00000000 	.word	0x00000000
300059ec:	18000000 	.word	0x18000000
300059f0:	ffff7e3c 	.word	0xffff7e3c
300059f4:	3c18187e 	.word	0x3c18187e
	...
30005a00:	3c180000 	.word	0x3c180000
30005a04:	0000183c 	.word	0x0000183c
30005a08:	00000000 	.word	0x00000000
30005a0c:	ffffffff 	.word	0xffffffff
30005a10:	c3e7ffff 	.word	0xc3e7ffff
30005a14:	ffffe7c3 	.word	0xffffe7c3
30005a18:	ffffffff 	.word	0xffffffff
30005a1c:	00000000 	.word	0x00000000
30005a20:	42663c00 	.word	0x42663c00
30005a24:	003c6642 	.word	0x003c6642
30005a28:	00000000 	.word	0x00000000
30005a2c:	ffffffff 	.word	0xffffffff
30005a30:	bd99c3ff 	.word	0xbd99c3ff
30005a34:	ffc399bd 	.word	0xffc399bd
30005a38:	ffffffff 	.word	0xffffffff
30005a3c:	0e1e0000 	.word	0x0e1e0000
30005a40:	cc78321a 	.word	0xcc78321a
30005a44:	78cccccc 	.word	0x78cccccc
30005a48:	00000000 	.word	0x00000000
30005a4c:	663c0000 	.word	0x663c0000
30005a50:	3c666666 	.word	0x3c666666
30005a54:	18187e18 	.word	0x18187e18
30005a58:	00000000 	.word	0x00000000
30005a5c:	333f0000 	.word	0x333f0000
30005a60:	3030303f 	.word	0x3030303f
30005a64:	e0f07030 	.word	0xe0f07030
30005a68:	00000000 	.word	0x00000000
30005a6c:	637f0000 	.word	0x637f0000
30005a70:	6363637f 	.word	0x6363637f
30005a74:	e6e76763 	.word	0xe6e76763
30005a78:	000000c0 	.word	0x000000c0
30005a7c:	18000000 	.word	0x18000000
30005a80:	e73cdb18 	.word	0xe73cdb18
30005a84:	1818db3c 	.word	0x1818db3c
30005a88:	00000000 	.word	0x00000000
30005a8c:	e0c08000 	.word	0xe0c08000
30005a90:	f8fef8f0 	.word	0xf8fef8f0
30005a94:	80c0e0f0 	.word	0x80c0e0f0
30005a98:	00000000 	.word	0x00000000
30005a9c:	0e060200 	.word	0x0e060200
30005aa0:	3efe3e1e 	.word	0x3efe3e1e
30005aa4:	02060e1e 	.word	0x02060e1e
30005aa8:	00000000 	.word	0x00000000
30005aac:	3c180000 	.word	0x3c180000
30005ab0:	1818187e 	.word	0x1818187e
30005ab4:	00183c7e 	.word	0x00183c7e
30005ab8:	00000000 	.word	0x00000000
30005abc:	66660000 	.word	0x66660000
30005ac0:	66666666 	.word	0x66666666
30005ac4:	66660066 	.word	0x66660066
30005ac8:	00000000 	.word	0x00000000
30005acc:	db7f0000 	.word	0xdb7f0000
30005ad0:	1b7bdbdb 	.word	0x1b7bdbdb
30005ad4:	1b1b1b1b 	.word	0x1b1b1b1b
30005ad8:	00000000 	.word	0x00000000
30005adc:	60c67c00 	.word	0x60c67c00
30005ae0:	c6c66c38 	.word	0xc6c66c38
30005ae4:	c60c386c 	.word	0xc60c386c
30005ae8:	0000007c 	.word	0x0000007c
	...
30005af4:	fefefefe 	.word	0xfefefefe
30005af8:	00000000 	.word	0x00000000
30005afc:	3c180000 	.word	0x3c180000
30005b00:	1818187e 	.word	0x1818187e
30005b04:	7e183c7e 	.word	0x7e183c7e
30005b08:	00000000 	.word	0x00000000
30005b0c:	3c180000 	.word	0x3c180000
30005b10:	1818187e 	.word	0x1818187e
30005b14:	18181818 	.word	0x18181818
30005b18:	00000000 	.word	0x00000000
30005b1c:	18180000 	.word	0x18180000
30005b20:	18181818 	.word	0x18181818
30005b24:	183c7e18 	.word	0x183c7e18
	...
30005b30:	fe0c1800 	.word	0xfe0c1800
30005b34:	0000180c 	.word	0x0000180c
	...
30005b40:	fe603000 	.word	0xfe603000
30005b44:	00003060 	.word	0x00003060
	...
30005b50:	c0c00000 	.word	0xc0c00000
30005b54:	0000fec0 	.word	0x0000fec0
	...
30005b60:	fe6c2800 	.word	0xfe6c2800
30005b64:	0000286c 	.word	0x0000286c
	...
30005b70:	7c383810 	.word	0x7c383810
30005b74:	00fefe7c 	.word	0x00fefe7c
	...
30005b80:	7c7cfefe 	.word	0x7c7cfefe
30005b84:	00103838 	.word	0x00103838
	...
30005b9c:	3c180000 	.word	0x3c180000
30005ba0:	18183c3c 	.word	0x18183c3c
30005ba4:	18180018 	.word	0x18180018
30005ba8:	00000000 	.word	0x00000000
30005bac:	66666600 	.word	0x66666600
30005bb0:	00000024 	.word	0x00000024
	...
30005bbc:	6c000000 	.word	0x6c000000
30005bc0:	6c6cfe6c 	.word	0x6c6cfe6c
30005bc4:	6c6cfe6c 	.word	0x6c6cfe6c
30005bc8:	00000000 	.word	0x00000000
30005bcc:	c67c1818 	.word	0xc67c1818
30005bd0:	067cc0c2 	.word	0x067cc0c2
30005bd4:	7cc68606 	.word	0x7cc68606
30005bd8:	00001818 	.word	0x00001818
30005bdc:	00000000 	.word	0x00000000
30005be0:	180cc6c2 	.word	0x180cc6c2
30005be4:	86c66030 	.word	0x86c66030
30005be8:	00000000 	.word	0x00000000
30005bec:	6c380000 	.word	0x6c380000
30005bf0:	dc76386c 	.word	0xdc76386c
30005bf4:	76cccccc 	.word	0x76cccccc
30005bf8:	00000000 	.word	0x00000000
30005bfc:	30303000 	.word	0x30303000
30005c00:	00000060 	.word	0x00000060
	...
30005c0c:	180c0000 	.word	0x180c0000
30005c10:	30303030 	.word	0x30303030
30005c14:	0c183030 	.word	0x0c183030
30005c18:	00000000 	.word	0x00000000
30005c1c:	18300000 	.word	0x18300000
30005c20:	0c0c0c0c 	.word	0x0c0c0c0c
30005c24:	30180c0c 	.word	0x30180c0c
	...
30005c30:	ff3c6600 	.word	0xff3c6600
30005c34:	0000663c 	.word	0x0000663c
	...
30005c40:	7e181800 	.word	0x7e181800
30005c44:	00001818 	.word	0x00001818
	...
30005c54:	18181800 	.word	0x18181800
30005c58:	00000030 	.word	0x00000030
30005c5c:	00000000 	.word	0x00000000
30005c60:	fe000000 	.word	0xfe000000
	...
30005c74:	18180000 	.word	0x18180000
	...
30005c80:	180c0602 	.word	0x180c0602
30005c84:	80c06030 	.word	0x80c06030
30005c88:	00000000 	.word	0x00000000
30005c8c:	6c380000 	.word	0x6c380000
30005c90:	d6d6c6c6 	.word	0xd6d6c6c6
30005c94:	386cc6c6 	.word	0x386cc6c6
30005c98:	00000000 	.word	0x00000000
30005c9c:	38180000 	.word	0x38180000
30005ca0:	18181878 	.word	0x18181878
30005ca4:	7e181818 	.word	0x7e181818
30005ca8:	00000000 	.word	0x00000000
30005cac:	c67c0000 	.word	0xc67c0000
30005cb0:	30180c06 	.word	0x30180c06
30005cb4:	fec6c060 	.word	0xfec6c060
30005cb8:	00000000 	.word	0x00000000
30005cbc:	c67c0000 	.word	0xc67c0000
30005cc0:	063c0606 	.word	0x063c0606
30005cc4:	7cc60606 	.word	0x7cc60606
30005cc8:	00000000 	.word	0x00000000
30005ccc:	1c0c0000 	.word	0x1c0c0000
30005cd0:	fecc6c3c 	.word	0xfecc6c3c
30005cd4:	1e0c0c0c 	.word	0x1e0c0c0c
30005cd8:	00000000 	.word	0x00000000
30005cdc:	c0fe0000 	.word	0xc0fe0000
30005ce0:	06fcc0c0 	.word	0x06fcc0c0
30005ce4:	7cc60606 	.word	0x7cc60606
30005ce8:	00000000 	.word	0x00000000
30005cec:	60380000 	.word	0x60380000
30005cf0:	c6fcc0c0 	.word	0xc6fcc0c0
30005cf4:	7cc6c6c6 	.word	0x7cc6c6c6
30005cf8:	00000000 	.word	0x00000000
30005cfc:	c6fe0000 	.word	0xc6fe0000
30005d00:	180c0606 	.word	0x180c0606
30005d04:	30303030 	.word	0x30303030
30005d08:	00000000 	.word	0x00000000
30005d0c:	c67c0000 	.word	0xc67c0000
30005d10:	c67cc6c6 	.word	0xc67cc6c6
30005d14:	7cc6c6c6 	.word	0x7cc6c6c6
30005d18:	00000000 	.word	0x00000000
30005d1c:	c67c0000 	.word	0xc67c0000
30005d20:	067ec6c6 	.word	0x067ec6c6
30005d24:	780c0606 	.word	0x780c0606
	...
30005d30:	00001818 	.word	0x00001818
30005d34:	00181800 	.word	0x00181800
	...
30005d40:	00001818 	.word	0x00001818
30005d44:	30181800 	.word	0x30181800
30005d48:	00000000 	.word	0x00000000
30005d4c:	06000000 	.word	0x06000000
30005d50:	6030180c 	.word	0x6030180c
30005d54:	060c1830 	.word	0x060c1830
	...
30005d60:	00007e00 	.word	0x00007e00
30005d64:	0000007e 	.word	0x0000007e
30005d68:	00000000 	.word	0x00000000
30005d6c:	60000000 	.word	0x60000000
30005d70:	060c1830 	.word	0x060c1830
30005d74:	6030180c 	.word	0x6030180c
30005d78:	00000000 	.word	0x00000000
30005d7c:	c67c0000 	.word	0xc67c0000
30005d80:	18180cc6 	.word	0x18180cc6
30005d84:	18180018 	.word	0x18180018
30005d88:	00000000 	.word	0x00000000
30005d8c:	7c000000 	.word	0x7c000000
30005d90:	dedec6c6 	.word	0xdedec6c6
30005d94:	7cc0dcde 	.word	0x7cc0dcde
30005d98:	00000000 	.word	0x00000000
30005d9c:	38100000 	.word	0x38100000
30005da0:	fec6c66c 	.word	0xfec6c66c
30005da4:	c6c6c6c6 	.word	0xc6c6c6c6
30005da8:	00000000 	.word	0x00000000
30005dac:	66fc0000 	.word	0x66fc0000
30005db0:	667c6666 	.word	0x667c6666
30005db4:	fc666666 	.word	0xfc666666
30005db8:	00000000 	.word	0x00000000
30005dbc:	663c0000 	.word	0x663c0000
30005dc0:	c0c0c0c2 	.word	0xc0c0c0c2
30005dc4:	3c66c2c0 	.word	0x3c66c2c0
30005dc8:	00000000 	.word	0x00000000
30005dcc:	6cf80000 	.word	0x6cf80000
30005dd0:	66666666 	.word	0x66666666
30005dd4:	f86c6666 	.word	0xf86c6666
30005dd8:	00000000 	.word	0x00000000
30005ddc:	66fe0000 	.word	0x66fe0000
30005de0:	68786862 	.word	0x68786862
30005de4:	fe666260 	.word	0xfe666260
30005de8:	00000000 	.word	0x00000000
30005dec:	66fe0000 	.word	0x66fe0000
30005df0:	68786862 	.word	0x68786862
30005df4:	f0606060 	.word	0xf0606060
30005df8:	00000000 	.word	0x00000000
30005dfc:	663c0000 	.word	0x663c0000
30005e00:	dec0c0c2 	.word	0xdec0c0c2
30005e04:	3a66c6c6 	.word	0x3a66c6c6
30005e08:	00000000 	.word	0x00000000
30005e0c:	c6c60000 	.word	0xc6c60000
30005e10:	c6fec6c6 	.word	0xc6fec6c6
30005e14:	c6c6c6c6 	.word	0xc6c6c6c6
30005e18:	00000000 	.word	0x00000000
30005e1c:	183c0000 	.word	0x183c0000
30005e20:	18181818 	.word	0x18181818
30005e24:	3c181818 	.word	0x3c181818
30005e28:	00000000 	.word	0x00000000
30005e2c:	0c1e0000 	.word	0x0c1e0000
30005e30:	0c0c0c0c 	.word	0x0c0c0c0c
30005e34:	78cccccc 	.word	0x78cccccc
30005e38:	00000000 	.word	0x00000000
30005e3c:	66e60000 	.word	0x66e60000
30005e40:	78786c66 	.word	0x78786c66
30005e44:	e666666c 	.word	0xe666666c
30005e48:	00000000 	.word	0x00000000
30005e4c:	60f00000 	.word	0x60f00000
30005e50:	60606060 	.word	0x60606060
30005e54:	fe666260 	.word	0xfe666260
30005e58:	00000000 	.word	0x00000000
30005e5c:	eec60000 	.word	0xeec60000
30005e60:	c6d6fefe 	.word	0xc6d6fefe
30005e64:	c6c6c6c6 	.word	0xc6c6c6c6
30005e68:	00000000 	.word	0x00000000
30005e6c:	e6c60000 	.word	0xe6c60000
30005e70:	cedefef6 	.word	0xcedefef6
30005e74:	c6c6c6c6 	.word	0xc6c6c6c6
30005e78:	00000000 	.word	0x00000000
30005e7c:	c67c0000 	.word	0xc67c0000
30005e80:	c6c6c6c6 	.word	0xc6c6c6c6
30005e84:	7cc6c6c6 	.word	0x7cc6c6c6
30005e88:	00000000 	.word	0x00000000
30005e8c:	66fc0000 	.word	0x66fc0000
30005e90:	607c6666 	.word	0x607c6666
30005e94:	f0606060 	.word	0xf0606060
30005e98:	00000000 	.word	0x00000000
30005e9c:	c67c0000 	.word	0xc67c0000
30005ea0:	c6c6c6c6 	.word	0xc6c6c6c6
30005ea4:	7cded6c6 	.word	0x7cded6c6
30005ea8:	00000e0c 	.word	0x00000e0c
30005eac:	66fc0000 	.word	0x66fc0000
30005eb0:	6c7c6666 	.word	0x6c7c6666
30005eb4:	e6666666 	.word	0xe6666666
30005eb8:	00000000 	.word	0x00000000
30005ebc:	c67c0000 	.word	0xc67c0000
30005ec0:	0c3860c6 	.word	0x0c3860c6
30005ec4:	7cc6c606 	.word	0x7cc6c606
30005ec8:	00000000 	.word	0x00000000
30005ecc:	7e7e0000 	.word	0x7e7e0000
30005ed0:	1818185a 	.word	0x1818185a
30005ed4:	3c181818 	.word	0x3c181818
30005ed8:	00000000 	.word	0x00000000
30005edc:	c6c60000 	.word	0xc6c60000
30005ee0:	c6c6c6c6 	.word	0xc6c6c6c6
30005ee4:	7cc6c6c6 	.word	0x7cc6c6c6
30005ee8:	00000000 	.word	0x00000000
30005eec:	c6c60000 	.word	0xc6c60000
30005ef0:	c6c6c6c6 	.word	0xc6c6c6c6
30005ef4:	10386cc6 	.word	0x10386cc6
30005ef8:	00000000 	.word	0x00000000
30005efc:	c6c60000 	.word	0xc6c60000
30005f00:	d6d6c6c6 	.word	0xd6d6c6c6
30005f04:	6ceefed6 	.word	0x6ceefed6
30005f08:	00000000 	.word	0x00000000
30005f0c:	c6c60000 	.word	0xc6c60000
30005f10:	38387c6c 	.word	0x38387c6c
30005f14:	c6c66c7c 	.word	0xc6c66c7c
30005f18:	00000000 	.word	0x00000000
30005f1c:	66660000 	.word	0x66660000
30005f20:	183c6666 	.word	0x183c6666
30005f24:	3c181818 	.word	0x3c181818
30005f28:	00000000 	.word	0x00000000
30005f2c:	c6fe0000 	.word	0xc6fe0000
30005f30:	30180c86 	.word	0x30180c86
30005f34:	fec6c260 	.word	0xfec6c260
30005f38:	00000000 	.word	0x00000000
30005f3c:	303c0000 	.word	0x303c0000
30005f40:	30303030 	.word	0x30303030
30005f44:	3c303030 	.word	0x3c303030
30005f48:	00000000 	.word	0x00000000
30005f4c:	80000000 	.word	0x80000000
30005f50:	3870e0c0 	.word	0x3870e0c0
30005f54:	02060e1c 	.word	0x02060e1c
30005f58:	00000000 	.word	0x00000000
30005f5c:	0c3c0000 	.word	0x0c3c0000
30005f60:	0c0c0c0c 	.word	0x0c0c0c0c
30005f64:	3c0c0c0c 	.word	0x3c0c0c0c
30005f68:	00000000 	.word	0x00000000
30005f6c:	c66c3810 	.word	0xc66c3810
	...
30005f88:	0000ff00 	.word	0x0000ff00
30005f8c:	0c183000 	.word	0x0c183000
	...
30005fa0:	7c0c7800 	.word	0x7c0c7800
30005fa4:	76cccccc 	.word	0x76cccccc
30005fa8:	00000000 	.word	0x00000000
30005fac:	60e00000 	.word	0x60e00000
30005fb0:	666c7860 	.word	0x666c7860
30005fb4:	7c666666 	.word	0x7c666666
	...
30005fc0:	c0c67c00 	.word	0xc0c67c00
30005fc4:	7cc6c0c0 	.word	0x7cc6c0c0
30005fc8:	00000000 	.word	0x00000000
30005fcc:	0c1c0000 	.word	0x0c1c0000
30005fd0:	cc6c3c0c 	.word	0xcc6c3c0c
30005fd4:	76cccccc 	.word	0x76cccccc
	...
30005fe0:	fec67c00 	.word	0xfec67c00
30005fe4:	7cc6c0c0 	.word	0x7cc6c0c0
30005fe8:	00000000 	.word	0x00000000
30005fec:	361c0000 	.word	0x361c0000
30005ff0:	30783032 	.word	0x30783032
30005ff4:	78303030 	.word	0x78303030
	...
30006000:	cccc7600 	.word	0xcccc7600
30006004:	7ccccccc 	.word	0x7ccccccc
30006008:	0078cc0c 	.word	0x0078cc0c
3000600c:	60e00000 	.word	0x60e00000
30006010:	66766c60 	.word	0x66766c60
30006014:	e6666666 	.word	0xe6666666
30006018:	00000000 	.word	0x00000000
3000601c:	18180000 	.word	0x18180000
30006020:	18183800 	.word	0x18183800
30006024:	3c181818 	.word	0x3c181818
30006028:	00000000 	.word	0x00000000
3000602c:	06060000 	.word	0x06060000
30006030:	06060e00 	.word	0x06060e00
30006034:	06060606 	.word	0x06060606
30006038:	003c6666 	.word	0x003c6666
3000603c:	60e00000 	.word	0x60e00000
30006040:	786c6660 	.word	0x786c6660
30006044:	e6666c78 	.word	0xe6666c78
30006048:	00000000 	.word	0x00000000
3000604c:	18380000 	.word	0x18380000
30006050:	18181818 	.word	0x18181818
30006054:	3c181818 	.word	0x3c181818
	...
30006060:	d6feec00 	.word	0xd6feec00
30006064:	c6d6d6d6 	.word	0xc6d6d6d6
	...
30006070:	6666dc00 	.word	0x6666dc00
30006074:	66666666 	.word	0x66666666
	...
30006080:	c6c67c00 	.word	0xc6c67c00
30006084:	7cc6c6c6 	.word	0x7cc6c6c6
	...
30006090:	6666dc00 	.word	0x6666dc00
30006094:	7c666666 	.word	0x7c666666
30006098:	00f06060 	.word	0x00f06060
3000609c:	00000000 	.word	0x00000000
300060a0:	cccc7600 	.word	0xcccc7600
300060a4:	7ccccccc 	.word	0x7ccccccc
300060a8:	001e0c0c 	.word	0x001e0c0c
300060ac:	00000000 	.word	0x00000000
300060b0:	6676dc00 	.word	0x6676dc00
300060b4:	f0606060 	.word	0xf0606060
	...
300060c0:	60c67c00 	.word	0x60c67c00
300060c4:	7cc60c38 	.word	0x7cc60c38
300060c8:	00000000 	.word	0x00000000
300060cc:	30100000 	.word	0x30100000
300060d0:	3030fc30 	.word	0x3030fc30
300060d4:	1c363030 	.word	0x1c363030
	...
300060e0:	cccccc00 	.word	0xcccccc00
300060e4:	76cccccc 	.word	0x76cccccc
	...
300060f0:	c6c6c600 	.word	0xc6c6c600
300060f4:	386cc6c6 	.word	0x386cc6c6
	...
30006100:	d6c6c600 	.word	0xd6c6c600
30006104:	6cfed6d6 	.word	0x6cfed6d6
	...
30006110:	386cc600 	.word	0x386cc600
30006114:	c66c3838 	.word	0xc66c3838
	...
30006120:	c6c6c600 	.word	0xc6c6c600
30006124:	7ec6c6c6 	.word	0x7ec6c6c6
30006128:	00f80c06 	.word	0x00f80c06
3000612c:	00000000 	.word	0x00000000
30006130:	18ccfe00 	.word	0x18ccfe00
30006134:	fec66030 	.word	0xfec66030
30006138:	00000000 	.word	0x00000000
3000613c:	180e0000 	.word	0x180e0000
30006140:	18701818 	.word	0x18701818
30006144:	0e181818 	.word	0x0e181818
30006148:	00000000 	.word	0x00000000
3000614c:	18180000 	.word	0x18180000
30006150:	18181818 	.word	0x18181818
30006154:	18181818 	.word	0x18181818
30006158:	00000000 	.word	0x00000000
3000615c:	18700000 	.word	0x18700000
30006160:	180e1818 	.word	0x180e1818
30006164:	70181818 	.word	0x70181818
30006168:	00000000 	.word	0x00000000
3000616c:	00dc7600 	.word	0x00dc7600
	...
30006180:	c66c3810 	.word	0xc66c3810
30006184:	00fec6c6 	.word	0x00fec6c6
30006188:	00000000 	.word	0x00000000
3000618c:	663c0000 	.word	0x663c0000
30006190:	c0c0c0c2 	.word	0xc0c0c0c2
30006194:	3c66c2c0 	.word	0x3c66c2c0
30006198:	00007018 	.word	0x00007018
3000619c:	00cc0000 	.word	0x00cc0000
300061a0:	cccccc00 	.word	0xcccccc00
300061a4:	76cccccc 	.word	0x76cccccc
300061a8:	00000000 	.word	0x00000000
300061ac:	30180c00 	.word	0x30180c00
300061b0:	fec67c00 	.word	0xfec67c00
300061b4:	7cc6c0c0 	.word	0x7cc6c0c0
300061b8:	00000000 	.word	0x00000000
300061bc:	6c381000 	.word	0x6c381000
300061c0:	7c0c7800 	.word	0x7c0c7800
300061c4:	76cccccc 	.word	0x76cccccc
300061c8:	00000000 	.word	0x00000000
300061cc:	00cc0000 	.word	0x00cc0000
300061d0:	7c0c7800 	.word	0x7c0c7800
300061d4:	76cccccc 	.word	0x76cccccc
300061d8:	00000000 	.word	0x00000000
300061dc:	18306000 	.word	0x18306000
300061e0:	7c0c7800 	.word	0x7c0c7800
300061e4:	76cccccc 	.word	0x76cccccc
300061e8:	00000000 	.word	0x00000000
300061ec:	386c3800 	.word	0x386c3800
300061f0:	7c0c7800 	.word	0x7c0c7800
300061f4:	76cccccc 	.word	0x76cccccc
	...
30006200:	c0c67c00 	.word	0xc0c67c00
30006204:	7cc6c0c0 	.word	0x7cc6c0c0
30006208:	00007018 	.word	0x00007018
3000620c:	6c381000 	.word	0x6c381000
30006210:	fec67c00 	.word	0xfec67c00
30006214:	7cc6c0c0 	.word	0x7cc6c0c0
30006218:	00000000 	.word	0x00000000
3000621c:	00c60000 	.word	0x00c60000
30006220:	fec67c00 	.word	0xfec67c00
30006224:	7cc6c0c0 	.word	0x7cc6c0c0
30006228:	00000000 	.word	0x00000000
3000622c:	18306000 	.word	0x18306000
30006230:	fec67c00 	.word	0xfec67c00
30006234:	7cc6c0c0 	.word	0x7cc6c0c0
30006238:	00000000 	.word	0x00000000
3000623c:	00660000 	.word	0x00660000
30006240:	18183800 	.word	0x18183800
30006244:	3c181818 	.word	0x3c181818
30006248:	00000000 	.word	0x00000000
3000624c:	663c1800 	.word	0x663c1800
30006250:	18183800 	.word	0x18183800
30006254:	3c181818 	.word	0x3c181818
30006258:	00000000 	.word	0x00000000
3000625c:	18306000 	.word	0x18306000
30006260:	18183800 	.word	0x18183800
30006264:	3c181818 	.word	0x3c181818
30006268:	00000000 	.word	0x00000000
3000626c:	1000c600 	.word	0x1000c600
30006270:	c6c66c38 	.word	0xc6c66c38
30006274:	c6c6c6fe 	.word	0xc6c6c6fe
30006278:	00000000 	.word	0x00000000
3000627c:	10386c38 	.word	0x10386c38
30006280:	fec66c38 	.word	0xfec66c38
30006284:	c6c6c6c6 	.word	0xc6c6c6c6
30006288:	00000000 	.word	0x00000000
3000628c:	fe00180c 	.word	0xfe00180c
30006290:	78686266 	.word	0x78686266
30006294:	fe666268 	.word	0xfe666268
	...
300062a0:	3636ec00 	.word	0x3636ec00
300062a4:	6ed8d87e 	.word	0x6ed8d87e
300062a8:	00000000 	.word	0x00000000
300062ac:	6c3e0000 	.word	0x6c3e0000
300062b0:	ccfecccc 	.word	0xccfecccc
300062b4:	cecccccc 	.word	0xcecccccc
300062b8:	00000000 	.word	0x00000000
300062bc:	6c381000 	.word	0x6c381000
300062c0:	c6c67c00 	.word	0xc6c67c00
300062c4:	7cc6c6c6 	.word	0x7cc6c6c6
300062c8:	00000000 	.word	0x00000000
300062cc:	00c60000 	.word	0x00c60000
300062d0:	c6c67c00 	.word	0xc6c67c00
300062d4:	7cc6c6c6 	.word	0x7cc6c6c6
300062d8:	00000000 	.word	0x00000000
300062dc:	18306000 	.word	0x18306000
300062e0:	c6c67c00 	.word	0xc6c67c00
300062e4:	7cc6c6c6 	.word	0x7cc6c6c6
300062e8:	00000000 	.word	0x00000000
300062ec:	cc783000 	.word	0xcc783000
300062f0:	cccccc00 	.word	0xcccccc00
300062f4:	76cccccc 	.word	0x76cccccc
300062f8:	00000000 	.word	0x00000000
300062fc:	18306000 	.word	0x18306000
30006300:	cccccc00 	.word	0xcccccc00
30006304:	76cccccc 	.word	0x76cccccc
30006308:	00000000 	.word	0x00000000
3000630c:	00c60000 	.word	0x00c60000
30006310:	c6c6c600 	.word	0xc6c6c600
30006314:	7ec6c6c6 	.word	0x7ec6c6c6
30006318:	00780c06 	.word	0x00780c06
3000631c:	7c00c600 	.word	0x7c00c600
30006320:	c6c6c6c6 	.word	0xc6c6c6c6
30006324:	7cc6c6c6 	.word	0x7cc6c6c6
30006328:	00000000 	.word	0x00000000
3000632c:	c600c600 	.word	0xc600c600
30006330:	c6c6c6c6 	.word	0xc6c6c6c6
30006334:	7cc6c6c6 	.word	0x7cc6c6c6
30006338:	00000000 	.word	0x00000000
3000633c:	7c181800 	.word	0x7c181800
30006340:	c0c0c0c6 	.word	0xc0c0c0c6
30006344:	18187cc6 	.word	0x18187cc6
30006348:	00000000 	.word	0x00000000
3000634c:	646c3800 	.word	0x646c3800
30006350:	6060f060 	.word	0x6060f060
30006354:	fce66060 	.word	0xfce66060
30006358:	00000000 	.word	0x00000000
3000635c:	66660000 	.word	0x66660000
30006360:	187e183c 	.word	0x187e183c
30006364:	1818187e 	.word	0x1818187e
30006368:	00000000 	.word	0x00000000
3000636c:	ccccf800 	.word	0xccccf800
30006370:	deccc4f8 	.word	0xdeccc4f8
30006374:	c6cccccc 	.word	0xc6cccccc
30006378:	00000000 	.word	0x00000000
3000637c:	181b0e00 	.word	0x181b0e00
30006380:	187e1818 	.word	0x187e1818
30006384:	70d81818 	.word	0x70d81818
30006388:	00000000 	.word	0x00000000
3000638c:	60301800 	.word	0x60301800
30006390:	7c0c7800 	.word	0x7c0c7800
30006394:	76cccccc 	.word	0x76cccccc
30006398:	00000000 	.word	0x00000000
3000639c:	30180c00 	.word	0x30180c00
300063a0:	18183800 	.word	0x18183800
300063a4:	3c181818 	.word	0x3c181818
300063a8:	00000000 	.word	0x00000000
300063ac:	60301800 	.word	0x60301800
300063b0:	c6c67c00 	.word	0xc6c67c00
300063b4:	7cc6c6c6 	.word	0x7cc6c6c6
300063b8:	00000000 	.word	0x00000000
300063bc:	60301800 	.word	0x60301800
300063c0:	cccccc00 	.word	0xcccccc00
300063c4:	76cccccc 	.word	0x76cccccc
300063c8:	00000000 	.word	0x00000000
300063cc:	dc760000 	.word	0xdc760000
300063d0:	6666dc00 	.word	0x6666dc00
300063d4:	66666666 	.word	0x66666666
300063d8:	00000000 	.word	0x00000000
300063dc:	c600dc76 	.word	0xc600dc76
300063e0:	defef6e6 	.word	0xdefef6e6
300063e4:	c6c6c6ce 	.word	0xc6c6c6ce
300063e8:	00000000 	.word	0x00000000
300063ec:	6c3c0000 	.word	0x6c3c0000
300063f0:	7e003e6c 	.word	0x7e003e6c
	...
300063fc:	6c380000 	.word	0x6c380000
30006400:	7c00386c 	.word	0x7c00386c
	...
3000640c:	30300000 	.word	0x30300000
30006410:	60303000 	.word	0x60303000
30006414:	7cc6c6c0 	.word	0x7cc6c6c0
	...
30006420:	c0fe0000 	.word	0xc0fe0000
30006424:	00c0c0c0 	.word	0x00c0c0c0
	...
30006430:	06fe0000 	.word	0x06fe0000
30006434:	00060606 	.word	0x00060606
30006438:	00000000 	.word	0x00000000
3000643c:	62e06000 	.word	0x62e06000
30006440:	30186c66 	.word	0x30186c66
30006444:	0c86dc60 	.word	0x0c86dc60
30006448:	00003e18 	.word	0x00003e18
3000644c:	62e06000 	.word	0x62e06000
30006450:	30186c66 	.word	0x30186c66
30006454:	3f9ace66 	.word	0x3f9ace66
30006458:	00000606 	.word	0x00000606
3000645c:	18180000 	.word	0x18180000
30006460:	18181800 	.word	0x18181800
30006464:	183c3c3c 	.word	0x183c3c3c
	...
30006470:	d86c3600 	.word	0xd86c3600
30006474:	0000366c 	.word	0x0000366c
	...
30006480:	366cd800 	.word	0x366cd800
30006484:	0000d86c 	.word	0x0000d86c
30006488:	00000000 	.word	0x00000000
3000648c:	44114411 	.word	0x44114411
30006490:	44114411 	.word	0x44114411
30006494:	44114411 	.word	0x44114411
30006498:	44114411 	.word	0x44114411
3000649c:	aa55aa55 	.word	0xaa55aa55
300064a0:	aa55aa55 	.word	0xaa55aa55
300064a4:	aa55aa55 	.word	0xaa55aa55
300064a8:	aa55aa55 	.word	0xaa55aa55
300064ac:	77dd77dd 	.word	0x77dd77dd
300064b0:	77dd77dd 	.word	0x77dd77dd
300064b4:	77dd77dd 	.word	0x77dd77dd
300064b8:	77dd77dd 	.word	0x77dd77dd
300064bc:	18181818 	.word	0x18181818
300064c0:	18181818 	.word	0x18181818
300064c4:	18181818 	.word	0x18181818
300064c8:	18181818 	.word	0x18181818
300064cc:	18181818 	.word	0x18181818
300064d0:	f8181818 	.word	0xf8181818
300064d4:	18181818 	.word	0x18181818
300064d8:	18181818 	.word	0x18181818
300064dc:	18181818 	.word	0x18181818
300064e0:	f818f818 	.word	0xf818f818
300064e4:	18181818 	.word	0x18181818
300064e8:	18181818 	.word	0x18181818
300064ec:	36363636 	.word	0x36363636
300064f0:	f6363636 	.word	0xf6363636
300064f4:	36363636 	.word	0x36363636
300064f8:	36363636 	.word	0x36363636
300064fc:	00000000 	.word	0x00000000
30006500:	fe000000 	.word	0xfe000000
30006504:	36363636 	.word	0x36363636
30006508:	36363636 	.word	0x36363636
3000650c:	00000000 	.word	0x00000000
30006510:	f818f800 	.word	0xf818f800
30006514:	18181818 	.word	0x18181818
30006518:	18181818 	.word	0x18181818
3000651c:	36363636 	.word	0x36363636
30006520:	f606f636 	.word	0xf606f636
30006524:	36363636 	.word	0x36363636
30006528:	36363636 	.word	0x36363636
3000652c:	36363636 	.word	0x36363636
30006530:	36363636 	.word	0x36363636
30006534:	36363636 	.word	0x36363636
30006538:	36363636 	.word	0x36363636
3000653c:	00000000 	.word	0x00000000
30006540:	f606fe00 	.word	0xf606fe00
30006544:	36363636 	.word	0x36363636
30006548:	36363636 	.word	0x36363636
3000654c:	36363636 	.word	0x36363636
30006550:	fe06f636 	.word	0xfe06f636
	...
3000655c:	36363636 	.word	0x36363636
30006560:	fe363636 	.word	0xfe363636
	...
3000656c:	18181818 	.word	0x18181818
30006570:	f818f818 	.word	0xf818f818
	...
30006580:	f8000000 	.word	0xf8000000
30006584:	18181818 	.word	0x18181818
30006588:	18181818 	.word	0x18181818
3000658c:	18181818 	.word	0x18181818
30006590:	1f181818 	.word	0x1f181818
	...
3000659c:	18181818 	.word	0x18181818
300065a0:	ff181818 	.word	0xff181818
	...
300065b0:	ff000000 	.word	0xff000000
300065b4:	18181818 	.word	0x18181818
300065b8:	18181818 	.word	0x18181818
300065bc:	18181818 	.word	0x18181818
300065c0:	1f181818 	.word	0x1f181818
300065c4:	18181818 	.word	0x18181818
300065c8:	18181818 	.word	0x18181818
300065cc:	00000000 	.word	0x00000000
300065d0:	ff000000 	.word	0xff000000
	...
300065dc:	18181818 	.word	0x18181818
300065e0:	ff181818 	.word	0xff181818
300065e4:	18181818 	.word	0x18181818
300065e8:	18181818 	.word	0x18181818
300065ec:	18181818 	.word	0x18181818
300065f0:	1f181f18 	.word	0x1f181f18
300065f4:	18181818 	.word	0x18181818
300065f8:	18181818 	.word	0x18181818
300065fc:	36363636 	.word	0x36363636
30006600:	37363636 	.word	0x37363636
30006604:	36363636 	.word	0x36363636
30006608:	36363636 	.word	0x36363636
3000660c:	36363636 	.word	0x36363636
30006610:	3f303736 	.word	0x3f303736
	...
30006620:	37303f00 	.word	0x37303f00
30006624:	36363636 	.word	0x36363636
30006628:	36363636 	.word	0x36363636
3000662c:	36363636 	.word	0x36363636
30006630:	ff00f736 	.word	0xff00f736
	...
30006640:	f700ff00 	.word	0xf700ff00
30006644:	36363636 	.word	0x36363636
30006648:	36363636 	.word	0x36363636
3000664c:	36363636 	.word	0x36363636
30006650:	37303736 	.word	0x37303736
30006654:	36363636 	.word	0x36363636
30006658:	36363636 	.word	0x36363636
3000665c:	00000000 	.word	0x00000000
30006660:	ff00ff00 	.word	0xff00ff00
	...
3000666c:	36363636 	.word	0x36363636
30006670:	f700f736 	.word	0xf700f736
30006674:	36363636 	.word	0x36363636
30006678:	36363636 	.word	0x36363636
3000667c:	18181818 	.word	0x18181818
30006680:	ff00ff18 	.word	0xff00ff18
	...
3000668c:	36363636 	.word	0x36363636
30006690:	ff363636 	.word	0xff363636
	...
300066a0:	ff00ff00 	.word	0xff00ff00
300066a4:	18181818 	.word	0x18181818
300066a8:	18181818 	.word	0x18181818
300066ac:	00000000 	.word	0x00000000
300066b0:	ff000000 	.word	0xff000000
300066b4:	36363636 	.word	0x36363636
300066b8:	36363636 	.word	0x36363636
300066bc:	36363636 	.word	0x36363636
300066c0:	3f363636 	.word	0x3f363636
	...
300066cc:	18181818 	.word	0x18181818
300066d0:	1f181f18 	.word	0x1f181f18
	...
300066e0:	1f181f00 	.word	0x1f181f00
300066e4:	18181818 	.word	0x18181818
300066e8:	18181818 	.word	0x18181818
300066ec:	00000000 	.word	0x00000000
300066f0:	3f000000 	.word	0x3f000000
300066f4:	36363636 	.word	0x36363636
300066f8:	36363636 	.word	0x36363636
300066fc:	36363636 	.word	0x36363636
30006700:	ff363636 	.word	0xff363636
30006704:	36363636 	.word	0x36363636
30006708:	36363636 	.word	0x36363636
3000670c:	18181818 	.word	0x18181818
30006710:	ff18ff18 	.word	0xff18ff18
30006714:	18181818 	.word	0x18181818
30006718:	18181818 	.word	0x18181818
3000671c:	18181818 	.word	0x18181818
30006720:	f8181818 	.word	0xf8181818
	...
30006730:	1f000000 	.word	0x1f000000
30006734:	18181818 	.word	0x18181818
30006738:	18181818 	.word	0x18181818
3000673c:	ffffffff 	.word	0xffffffff
30006740:	ffffffff 	.word	0xffffffff
30006744:	ffffffff 	.word	0xffffffff
30006748:	ffffffff 	.word	0xffffffff
3000674c:	00000000 	.word	0x00000000
30006750:	ff000000 	.word	0xff000000
30006754:	ffffffff 	.word	0xffffffff
30006758:	ffffffff 	.word	0xffffffff
3000675c:	f0f0f0f0 	.word	0xf0f0f0f0
30006760:	f0f0f0f0 	.word	0xf0f0f0f0
30006764:	f0f0f0f0 	.word	0xf0f0f0f0
30006768:	f0f0f0f0 	.word	0xf0f0f0f0
3000676c:	0f0f0f0f 	.word	0x0f0f0f0f
30006770:	0f0f0f0f 	.word	0x0f0f0f0f
30006774:	0f0f0f0f 	.word	0x0f0f0f0f
30006778:	0f0f0f0f 	.word	0x0f0f0f0f
3000677c:	ffffffff 	.word	0xffffffff
30006780:	00ffffff 	.word	0x00ffffff
	...
30006790:	d8dc7600 	.word	0xd8dc7600
30006794:	76dcd8d8 	.word	0x76dcd8d8
30006798:	00000000 	.word	0x00000000
3000679c:	cc780000 	.word	0xcc780000
300067a0:	ccd8cccc 	.word	0xccd8cccc
300067a4:	ccc6c6c6 	.word	0xccc6c6c6
300067a8:	00000000 	.word	0x00000000
300067ac:	c6fe0000 	.word	0xc6fe0000
300067b0:	c0c0c0c6 	.word	0xc0c0c0c6
300067b4:	c0c0c0c0 	.word	0xc0c0c0c0
	...
300067c0:	6c6cfe00 	.word	0x6c6cfe00
300067c4:	6c6c6c6c 	.word	0x6c6c6c6c
300067c8:	00000000 	.word	0x00000000
300067cc:	c6fe0000 	.word	0xc6fe0000
300067d0:	18183060 	.word	0x18183060
300067d4:	fec66030 	.word	0xfec66030
	...
300067e0:	d8d87e00 	.word	0xd8d87e00
300067e4:	70d8d8d8 	.word	0x70d8d8d8
	...
300067f0:	66666600 	.word	0x66666600
300067f4:	7c666666 	.word	0x7c666666
300067f8:	00c06060 	.word	0x00c06060
300067fc:	00000000 	.word	0x00000000
30006800:	1818dc76 	.word	0x1818dc76
30006804:	18181818 	.word	0x18181818
30006808:	00000000 	.word	0x00000000
3000680c:	187e0000 	.word	0x187e0000
30006810:	6666663c 	.word	0x6666663c
30006814:	7e183c66 	.word	0x7e183c66
30006818:	00000000 	.word	0x00000000
3000681c:	6c380000 	.word	0x6c380000
30006820:	c6fec6c6 	.word	0xc6fec6c6
30006824:	386cc6c6 	.word	0x386cc6c6
30006828:	00000000 	.word	0x00000000
3000682c:	6c380000 	.word	0x6c380000
30006830:	6cc6c6c6 	.word	0x6cc6c6c6
30006834:	ee6c6c6c 	.word	0xee6c6c6c
30006838:	00000000 	.word	0x00000000
3000683c:	301e0000 	.word	0x301e0000
30006840:	663e0c18 	.word	0x663e0c18
30006844:	3c666666 	.word	0x3c666666
	...
30006850:	dbdb7e00 	.word	0xdbdb7e00
30006854:	00007edb 	.word	0x00007edb
30006858:	00000000 	.word	0x00000000
3000685c:	03000000 	.word	0x03000000
30006860:	dbdb7e06 	.word	0xdbdb7e06
30006864:	c0607ef3 	.word	0xc0607ef3
30006868:	00000000 	.word	0x00000000
3000686c:	301c0000 	.word	0x301c0000
30006870:	607c6060 	.word	0x607c6060
30006874:	1c306060 	.word	0x1c306060
30006878:	00000000 	.word	0x00000000
3000687c:	7c000000 	.word	0x7c000000
30006880:	c6c6c6c6 	.word	0xc6c6c6c6
30006884:	c6c6c6c6 	.word	0xc6c6c6c6
	...
30006890:	fe0000fe 	.word	0xfe0000fe
30006894:	00fe0000 	.word	0x00fe0000
	...
300068a0:	187e1818 	.word	0x187e1818
300068a4:	7e000018 	.word	0x7e000018
300068a8:	00000000 	.word	0x00000000
300068ac:	30000000 	.word	0x30000000
300068b0:	0c060c18 	.word	0x0c060c18
300068b4:	7e003018 	.word	0x7e003018
300068b8:	00000000 	.word	0x00000000
300068bc:	0c000000 	.word	0x0c000000
300068c0:	30603018 	.word	0x30603018
300068c4:	7e000c18 	.word	0x7e000c18
300068c8:	00000000 	.word	0x00000000
300068cc:	1b0e0000 	.word	0x1b0e0000
300068d0:	1818181b 	.word	0x1818181b
300068d4:	18181818 	.word	0x18181818
300068d8:	18181818 	.word	0x18181818
300068dc:	18181818 	.word	0x18181818
300068e0:	18181818 	.word	0x18181818
300068e4:	d8d8d818 	.word	0xd8d8d818
300068e8:	00000070 	.word	0x00000070
300068ec:	00000000 	.word	0x00000000
300068f0:	7e001800 	.word	0x7e001800
300068f4:	00001800 	.word	0x00001800
	...
30006900:	00dc7600 	.word	0x00dc7600
30006904:	0000dc76 	.word	0x0000dc76
30006908:	00000000 	.word	0x00000000
3000690c:	6c6c3800 	.word	0x6c6c3800
30006910:	00000038 	.word	0x00000038
	...
30006920:	18000000 	.word	0x18000000
30006924:	00000018 	.word	0x00000018
	...
30006930:	18000000 	.word	0x18000000
	...
3000693c:	0c0c0f00 	.word	0x0c0c0f00
30006940:	ec0c0c0c 	.word	0xec0c0c0c
30006944:	1c3c6c6c 	.word	0x1c3c6c6c
30006948:	00000000 	.word	0x00000000
3000694c:	36366c00 	.word	0x36366c00
30006950:	00363636 	.word	0x00363636
	...
3000695c:	0c663c00 	.word	0x0c663c00
30006960:	007e3218 	.word	0x007e3218
	...
30006970:	7e7e7e7e 	.word	0x7e7e7e7e
30006974:	007e7e7e 	.word	0x007e7e7e
	...
Disassembly of section .data:

3000698c <g_Char>:
3000698c:	41          	.byte	0x41

3000698d <g_Char3>:
3000698d:	61          	.byte	0x61

3000698e <hex_tab>:
3000698e:	3130      	.short	0x3130
30006990:	35343332 	.word	0x35343332
30006994:	39383736 	.word	0x39383736
30006998:	64636261 	.word	0x64636261
3000699c:	6665      	.short	0x6665

3000699e <_ctype>:
3000699e:	0808      	.short	0x0808
300069a0:	08080808 	.word	0x08080808
300069a4:	28080808 	.word	0x28080808
300069a8:	28282828 	.word	0x28282828
300069ac:	08080808 	.word	0x08080808
300069b0:	08080808 	.word	0x08080808
300069b4:	08080808 	.word	0x08080808
300069b8:	08080808 	.word	0x08080808
300069bc:	10a00808 	.word	0x10a00808
300069c0:	10101010 	.word	0x10101010
300069c4:	10101010 	.word	0x10101010
300069c8:	10101010 	.word	0x10101010
300069cc:	04041010 	.word	0x04041010
300069d0:	04040404 	.word	0x04040404
300069d4:	04040404 	.word	0x04040404
300069d8:	10101010 	.word	0x10101010
300069dc:	41101010 	.word	0x41101010
300069e0:	41414141 	.word	0x41414141
300069e4:	01010141 	.word	0x01010141
300069e8:	01010101 	.word	0x01010101
300069ec:	01010101 	.word	0x01010101
300069f0:	01010101 	.word	0x01010101
300069f4:	01010101 	.word	0x01010101
300069f8:	10101001 	.word	0x10101001
300069fc:	42101010 	.word	0x42101010
30006a00:	42424242 	.word	0x42424242
30006a04:	02020242 	.word	0x02020242
30006a08:	02020202 	.word	0x02020202
30006a0c:	02020202 	.word	0x02020202
30006a10:	02020202 	.word	0x02020202
30006a14:	02020202 	.word	0x02020202
30006a18:	10101002 	.word	0x10101002
30006a1c:	00000810 	.word	0x00000810
	...
30006a3c:	10a00000 	.word	0x10a00000
30006a40:	10101010 	.word	0x10101010
30006a44:	10101010 	.word	0x10101010
30006a48:	10101010 	.word	0x10101010
30006a4c:	10101010 	.word	0x10101010
30006a50:	10101010 	.word	0x10101010
30006a54:	10101010 	.word	0x10101010
30006a58:	10101010 	.word	0x10101010
30006a5c:	01011010 	.word	0x01011010
30006a60:	01010101 	.word	0x01010101
30006a64:	01010101 	.word	0x01010101
30006a68:	01010101 	.word	0x01010101
30006a6c:	01010101 	.word	0x01010101
30006a70:	01010101 	.word	0x01010101
30006a74:	01011001 	.word	0x01011001
30006a78:	01010101 	.word	0x01010101
30006a7c:	02020201 	.word	0x02020201
30006a80:	02020202 	.word	0x02020202
30006a84:	02020202 	.word	0x02020202
30006a88:	02020202 	.word	0x02020202
30006a8c:	02020202 	.word	0x02020202
30006a90:	02020202 	.word	0x02020202
30006a94:	02021002 	.word	0x02021002
30006a98:	02020202 	.word	0x02020202
30006a9c:	00000202 	.word	0x00000202

30006aa0 <lcd_4_3_params>:
30006aa0:	30005958 	.word	0x30005958
	...
30006ab4:	00000001 	.word	0x00000001
30006ab8:	00000001 	.word	0x00000001
30006abc:	0000000a 	.word	0x0000000a
30006ac0:	00000002 	.word	0x00000002
30006ac4:	00000002 	.word	0x00000002
30006ac8:	00000029 	.word	0x00000029
30006acc:	00000002 	.word	0x00000002
30006ad0:	00000002 	.word	0x00000002
30006ad4:	00000009 	.word	0x00000009
30006ad8:	000001e0 	.word	0x000001e0
30006adc:	00000110 	.word	0x00000110
30006ae0:	00000008 	.word	0x00000008
30006ae4:	33c00000 	.word	0x33c00000

30006ae8 <s3c2440_lcd_controller>:
30006ae8:	30005984 	.word	0x30005984
30006aec:	300045b0 	.word	0x300045b0
30006af0:	300048e8 	.word	0x300048e8
30006af4:	30004948 	.word	0x30004948
30006af8:	300049a8 	.word	0x300049a8
Disassembly of section .bss:

30006afc <g_A>:
30006afc:	00000000 	.word	0x00000000

30006b00 <cnt.1246>:
30006b00:	00000000 	.word	0x00000000

30006b04 <fb_base>:
30006b04:	00000000 	.word	0x00000000

30006b08 <xres>:
30006b08:	00000000 	.word	0x00000000

30006b0c <yres>:
30006b0c:	00000000 	.word	0x00000000

30006b10 <bpp>:
30006b10:	00000000 	.word	0x00000000

30006b14 <fb_base>:
30006b14:	00000000 	.word	0x00000000

30006b18 <xres>:
30006b18:	00000000 	.word	0x00000000

30006b1c <yres>:
30006b1c:	00000000 	.word	0x00000000

30006b20 <bpp>:
30006b20:	00000000 	.word	0x00000000

30006b24 <p_array_lcd>:
	...

30006b4c <g_p_lcd_selected>:
30006b4c:	00000000 	.word	0x00000000

30006b50 <p_array_lcd_controller>:
	...

30006b78 <g_p_lcd_controller_selected>:
30006b78:	00000000 	.word	0x00000000

30006b7c <g_B>:
30006b7c:	00000000 	.word	0x00000000

30006b80 <irq_array>:
	...
Disassembly of section .ARM.attributes:

00000000 <.ARM.attributes>:
   0:	00002441 	andeq	r2, r0, r1, asr #8
   4:	61656100 	cmnvs	r5, r0, lsl #2
   8:	01006962 	tsteq	r0, r2, ror #18
   c:	0000001a 	andeq	r0, r0, sl, lsl r0
  10:	06003405 	streq	r3, [r0], -r5, lsl #8
  14:	12010803 	andne	r0, r1, #196608	; 0x30000
  18:	15011404 	strne	r1, [r1, #-1028]
  1c:	18031701 	stmdane	r3, {r0, r8, r9, sl, ip}
  20:	1a011901 	bne	4642c <shift+0x4642c>
  24:	Address 0x00000024 is out of bounds.

Disassembly of section .comment:

00000000 <.comment>:
   0:	43434700 	movtmi	r4, #14080	; 0x3700
   4:	5328203a 	teqpl	r8, #58	; 0x3a
   8:	6372756f 	cmnvs	r2, #465567744	; 0x1bc00000
   c:	20797265 	rsbscs	r7, r9, r5, ror #4
  10:	202b2b47 	eorcs	r2, fp, r7, asr #22
  14:	6574694c 	ldrbvs	r6, [r4, #-2380]!
  18:	30303220 	eorscc	r3, r0, r0, lsr #4
  1c:	2d337138 	ldfcss	f7, [r3, #-224]!
  20:	20293237 	eorcs	r3, r9, r7, lsr r2
  24:	2e332e34 	mrccs	14, 1, r2, cr3, cr4, {1}
  28:	47000032 	smladxmi	r0, r2, r0, r0
  2c:	203a4343 	eorscs	r4, sl, r3, asr #6
  30:	756f5328 	strbvc	r5, [pc, #-808]!	; fffffd10 <_end+0xcfff9110>
  34:	72656372 	rsbvc	r6, r5, #-939524095	; 0xc8000001
  38:	2b472079 	blcs	11c8224 <shift+0x11c8224>
  3c:	694c202b 	stmdbvs	ip, {r0, r1, r3, r5, sp}^
  40:	32206574 	eorcc	r6, r0, #486539264	; 0x1d000000
  44:	71383030 	teqvc	r8, r0, lsr r0
  48:	32372d33 	eorscc	r2, r7, #3264	; 0xcc0
  4c:	2e342029 	cdpcs	0, 3, cr2, cr4, cr9, {1}
  50:	00322e33 	eorseq	r2, r2, r3, lsr lr
  54:	43434700 	movtmi	r4, #14080	; 0x3700
  58:	5328203a 	teqpl	r8, #58	; 0x3a
  5c:	6372756f 	cmnvs	r2, #465567744	; 0x1bc00000
  60:	20797265 	rsbscs	r7, r9, r5, ror #4
  64:	202b2b47 	eorcs	r2, fp, r7, asr #22
  68:	6574694c 	ldrbvs	r6, [r4, #-2380]!
  6c:	30303220 	eorscc	r3, r0, r0, lsr #4
  70:	2d337138 	ldfcss	f7, [r3, #-224]!
  74:	20293237 	eorcs	r3, r9, r7, lsr r2
  78:	2e332e34 	mrccs	14, 1, r2, cr3, cr4, {1}
  7c:	47000032 	smladxmi	r0, r2, r0, r0
  80:	203a4343 	eorscs	r4, sl, r3, asr #6
  84:	756f5328 	strbvc	r5, [pc, #-808]!	; fffffd64 <_end+0xcfff9164>
  88:	72656372 	rsbvc	r6, r5, #-939524095	; 0xc8000001
  8c:	2b472079 	blcs	11c8278 <shift+0x11c8278>
  90:	694c202b 	stmdbvs	ip, {r0, r1, r3, r5, sp}^
  94:	32206574 	eorcc	r6, r0, #486539264	; 0x1d000000
  98:	71383030 	teqvc	r8, r0, lsr r0
  9c:	32372d33 	eorscc	r2, r7, #3264	; 0xcc0
  a0:	2e342029 	cdpcs	0, 3, cr2, cr4, cr9, {1}
  a4:	00322e33 	eorseq	r2, r2, r3, lsr lr
  a8:	43434700 	movtmi	r4, #14080	; 0x3700
  ac:	5328203a 	teqpl	r8, #58	; 0x3a
  b0:	6372756f 	cmnvs	r2, #465567744	; 0x1bc00000
  b4:	20797265 	rsbscs	r7, r9, r5, ror #4
  b8:	202b2b47 	eorcs	r2, fp, r7, asr #22
  bc:	6574694c 	ldrbvs	r6, [r4, #-2380]!
  c0:	30303220 	eorscc	r3, r0, r0, lsr #4
  c4:	2d337138 	ldfcss	f7, [r3, #-224]!
  c8:	20293237 	eorcs	r3, r9, r7, lsr r2
  cc:	2e332e34 	mrccs	14, 1, r2, cr3, cr4, {1}
  d0:	47000032 	smladxmi	r0, r2, r0, r0
  d4:	203a4343 	eorscs	r4, sl, r3, asr #6
  d8:	756f5328 	strbvc	r5, [pc, #-808]!	; fffffdb8 <_end+0xcfff91b8>
  dc:	72656372 	rsbvc	r6, r5, #-939524095	; 0xc8000001
  e0:	2b472079 	blcs	11c82cc <shift+0x11c82cc>
  e4:	694c202b 	stmdbvs	ip, {r0, r1, r3, r5, sp}^
  e8:	32206574 	eorcc	r6, r0, #486539264	; 0x1d000000
  ec:	71383030 	teqvc	r8, r0, lsr r0
  f0:	32372d33 	eorscc	r2, r7, #3264	; 0xcc0
  f4:	2e342029 	cdpcs	0, 3, cr2, cr4, cr9, {1}
  f8:	00322e33 	eorseq	r2, r2, r3, lsr lr
  fc:	43434700 	movtmi	r4, #14080	; 0x3700
 100:	5328203a 	teqpl	r8, #58	; 0x3a
 104:	6372756f 	cmnvs	r2, #465567744	; 0x1bc00000
 108:	20797265 	rsbscs	r7, r9, r5, ror #4
 10c:	202b2b47 	eorcs	r2, fp, r7, asr #22
 110:	6574694c 	ldrbvs	r6, [r4, #-2380]!
 114:	30303220 	eorscc	r3, r0, r0, lsr #4
 118:	2d337138 	ldfcss	f7, [r3, #-224]!
 11c:	20293237 	eorcs	r3, r9, r7, lsr r2
 120:	2e332e34 	mrccs	14, 1, r2, cr3, cr4, {1}
 124:	47000032 	smladxmi	r0, r2, r0, r0
 128:	203a4343 	eorscs	r4, sl, r3, asr #6
 12c:	756f5328 	strbvc	r5, [pc, #-808]!	; fffffe0c <_end+0xcfff920c>
 130:	72656372 	rsbvc	r6, r5, #-939524095	; 0xc8000001
 134:	2b472079 	blcs	11c8320 <shift+0x11c8320>
 138:	694c202b 	stmdbvs	ip, {r0, r1, r3, r5, sp}^
 13c:	32206574 	eorcc	r6, r0, #486539264	; 0x1d000000
 140:	71383030 	teqvc	r8, r0, lsr r0
 144:	32372d33 	eorscc	r2, r7, #3264	; 0xcc0
 148:	2e342029 	cdpcs	0, 3, cr2, cr4, cr9, {1}
 14c:	00322e33 	eorseq	r2, r2, r3, lsr lr
 150:	43434700 	movtmi	r4, #14080	; 0x3700
 154:	5328203a 	teqpl	r8, #58	; 0x3a
 158:	6372756f 	cmnvs	r2, #465567744	; 0x1bc00000
 15c:	20797265 	rsbscs	r7, r9, r5, ror #4
 160:	202b2b47 	eorcs	r2, fp, r7, asr #22
 164:	6574694c 	ldrbvs	r6, [r4, #-2380]!
 168:	30303220 	eorscc	r3, r0, r0, lsr #4
 16c:	2d337138 	ldfcss	f7, [r3, #-224]!
 170:	20293237 	eorcs	r3, r9, r7, lsr r2
 174:	2e332e34 	mrccs	14, 1, r2, cr3, cr4, {1}
 178:	47000032 	smladxmi	r0, r2, r0, r0
 17c:	203a4343 	eorscs	r4, sl, r3, asr #6
 180:	756f5328 	strbvc	r5, [pc, #-808]!	; fffffe60 <_end+0xcfff9260>
 184:	72656372 	rsbvc	r6, r5, #-939524095	; 0xc8000001
 188:	2b472079 	blcs	11c8374 <shift+0x11c8374>
 18c:	694c202b 	stmdbvs	ip, {r0, r1, r3, r5, sp}^
 190:	32206574 	eorcc	r6, r0, #486539264	; 0x1d000000
 194:	71383030 	teqvc	r8, r0, lsr r0
 198:	32372d33 	eorscc	r2, r7, #3264	; 0xcc0
 19c:	2e342029 	cdpcs	0, 3, cr2, cr4, cr9, {1}
 1a0:	00322e33 	eorseq	r2, r2, r3, lsr lr
 1a4:	43434700 	movtmi	r4, #14080	; 0x3700
 1a8:	5328203a 	teqpl	r8, #58	; 0x3a
 1ac:	6372756f 	cmnvs	r2, #465567744	; 0x1bc00000
 1b0:	20797265 	rsbscs	r7, r9, r5, ror #4
 1b4:	202b2b47 	eorcs	r2, fp, r7, asr #22
 1b8:	6574694c 	ldrbvs	r6, [r4, #-2380]!
 1bc:	30303220 	eorscc	r3, r0, r0, lsr #4
 1c0:	2d337138 	ldfcss	f7, [r3, #-224]!
 1c4:	20293237 	eorcs	r3, r9, r7, lsr r2
 1c8:	2e332e34 	mrccs	14, 1, r2, cr3, cr4, {1}
 1cc:	47000032 	smladxmi	r0, r2, r0, r0
 1d0:	203a4343 	eorscs	r4, sl, r3, asr #6
 1d4:	756f5328 	strbvc	r5, [pc, #-808]!	; fffffeb4 <_end+0xcfff92b4>
 1d8:	72656372 	rsbvc	r6, r5, #-939524095	; 0xc8000001
 1dc:	2b472079 	blcs	11c83c8 <shift+0x11c83c8>
 1e0:	694c202b 	stmdbvs	ip, {r0, r1, r3, r5, sp}^
 1e4:	32206574 	eorcc	r6, r0, #486539264	; 0x1d000000
 1e8:	71383030 	teqvc	r8, r0, lsr r0
 1ec:	32372d33 	eorscc	r2, r7, #3264	; 0xcc0
 1f0:	2e342029 	cdpcs	0, 3, cr2, cr4, cr9, {1}
 1f4:	00322e33 	eorseq	r2, r2, r3, lsr lr
 1f8:	43434700 	movtmi	r4, #14080	; 0x3700
 1fc:	5328203a 	teqpl	r8, #58	; 0x3a
 200:	6372756f 	cmnvs	r2, #465567744	; 0x1bc00000
 204:	20797265 	rsbscs	r7, r9, r5, ror #4
 208:	202b2b47 	eorcs	r2, fp, r7, asr #22
 20c:	6574694c 	ldrbvs	r6, [r4, #-2380]!
 210:	30303220 	eorscc	r3, r0, r0, lsr #4
 214:	2d337138 	ldfcss	f7, [r3, #-224]!
 218:	20293237 	eorcs	r3, r9, r7, lsr r2
 21c:	2e332e34 	mrccs	14, 1, r2, cr3, cr4, {1}
 220:	47000032 	smladxmi	r0, r2, r0, r0
 224:	203a4343 	eorscs	r4, sl, r3, asr #6
 228:	756f5328 	strbvc	r5, [pc, #-808]!	; ffffff08 <_end+0xcfff9308>
 22c:	72656372 	rsbvc	r6, r5, #-939524095	; 0xc8000001
 230:	2b472079 	blcs	11c841c <shift+0x11c841c>
 234:	694c202b 	stmdbvs	ip, {r0, r1, r3, r5, sp}^
 238:	32206574 	eorcc	r6, r0, #486539264	; 0x1d000000
 23c:	71383030 	teqvc	r8, r0, lsr r0
 240:	32372d33 	eorscc	r2, r7, #3264	; 0xcc0
 244:	2e342029 	cdpcs	0, 3, cr2, cr4, cr9, {1}
 248:	00322e33 	eorseq	r2, r2, r3, lsr lr
 24c:	43434700 	movtmi	r4, #14080	; 0x3700
 250:	5328203a 	teqpl	r8, #58	; 0x3a
 254:	6372756f 	cmnvs	r2, #465567744	; 0x1bc00000
 258:	20797265 	rsbscs	r7, r9, r5, ror #4
 25c:	202b2b47 	eorcs	r2, fp, r7, asr #22
 260:	6574694c 	ldrbvs	r6, [r4, #-2380]!
 264:	30303220 	eorscc	r3, r0, r0, lsr #4
 268:	2d337138 	ldfcss	f7, [r3, #-224]!
 26c:	20293237 	eorcs	r3, r9, r7, lsr r2
 270:	2e332e34 	mrccs	14, 1, r2, cr3, cr4, {1}
 274:	47000032 	smladxmi	r0, r2, r0, r0
 278:	203a4343 	eorscs	r4, sl, r3, asr #6
 27c:	756f5328 	strbvc	r5, [pc, #-808]!	; ffffff5c <_end+0xcfff935c>
 280:	72656372 	rsbvc	r6, r5, #-939524095	; 0xc8000001
 284:	2b472079 	blcs	11c8470 <shift+0x11c8470>
 288:	694c202b 	stmdbvs	ip, {r0, r1, r3, r5, sp}^
 28c:	32206574 	eorcc	r6, r0, #486539264	; 0x1d000000
 290:	71383030 	teqvc	r8, r0, lsr r0
 294:	32372d33 	eorscc	r2, r7, #3264	; 0xcc0
 298:	2e342029 	cdpcs	0, 3, cr2, cr4, cr9, {1}
 29c:	00322e33 	eorseq	r2, r2, r3, lsr lr
 2a0:	43434700 	movtmi	r4, #14080	; 0x3700
 2a4:	5328203a 	teqpl	r8, #58	; 0x3a
 2a8:	6372756f 	cmnvs	r2, #465567744	; 0x1bc00000
 2ac:	20797265 	rsbscs	r7, r9, r5, ror #4
 2b0:	202b2b47 	eorcs	r2, fp, r7, asr #22
 2b4:	6574694c 	ldrbvs	r6, [r4, #-2380]!
 2b8:	30303220 	eorscc	r3, r0, r0, lsr #4
 2bc:	2d337138 	ldfcss	f7, [r3, #-224]!
 2c0:	20293237 	eorcs	r3, r9, r7, lsr r2
 2c4:	2e332e34 	mrccs	14, 1, r2, cr3, cr4, {1}
 2c8:	47000032 	smladxmi	r0, r2, r0, r0
 2cc:	203a4343 	eorscs	r4, sl, r3, asr #6
 2d0:	756f5328 	strbvc	r5, [pc, #-808]!	; ffffffb0 <_end+0xcfff93b0>
 2d4:	72656372 	rsbvc	r6, r5, #-939524095	; 0xc8000001
 2d8:	2b472079 	blcs	11c84c4 <shift+0x11c84c4>
 2dc:	694c202b 	stmdbvs	ip, {r0, r1, r3, r5, sp}^
 2e0:	32206574 	eorcc	r6, r0, #486539264	; 0x1d000000
 2e4:	71383030 	teqvc	r8, r0, lsr r0
 2e8:	32372d33 	eorscc	r2, r7, #3264	; 0xcc0
 2ec:	2e342029 	cdpcs	0, 3, cr2, cr4, cr9, {1}
 2f0:	00322e33 	eorseq	r2, r2, r3, lsr lr
 2f4:	43434700 	movtmi	r4, #14080	; 0x3700
 2f8:	5328203a 	teqpl	r8, #58	; 0x3a
 2fc:	6372756f 	cmnvs	r2, #465567744	; 0x1bc00000
 300:	20797265 	rsbscs	r7, r9, r5, ror #4
 304:	202b2b47 	eorcs	r2, fp, r7, asr #22
 308:	6574694c 	ldrbvs	r6, [r4, #-2380]!
 30c:	30303220 	eorscc	r3, r0, r0, lsr #4
 310:	2d337138 	ldfcss	f7, [r3, #-224]!
 314:	20293237 	eorcs	r3, r9, r7, lsr r2
 318:	2e332e34 	mrccs	14, 1, r2, cr3, cr4, {1}
 31c:	47000032 	smladxmi	r0, r2, r0, r0
 320:	203a4343 	eorscs	r4, sl, r3, asr #6
 324:	756f5328 	strbvc	r5, [pc, #-808]!	; 4 <shift+0x4>
 328:	72656372 	rsbvc	r6, r5, #-939524095	; 0xc8000001
 32c:	2b472079 	blcs	11c8518 <shift+0x11c8518>
 330:	694c202b 	stmdbvs	ip, {r0, r1, r3, r5, sp}^
 334:	32206574 	eorcc	r6, r0, #486539264	; 0x1d000000
 338:	71383030 	teqvc	r8, r0, lsr r0
 33c:	32372d33 	eorscc	r2, r7, #3264	; 0xcc0
 340:	2e342029 	cdpcs	0, 3, cr2, cr4, cr9, {1}
 344:	00322e33 	eorseq	r2, r2, r3, lsr lr
Disassembly of section .debug_frame:

00000000 <.debug_frame>:
   0:	0000000c 	.word	0x0000000c
   4:	ffffffff 	.word	0xffffffff
   8:	7c010001 	.word	0x7c010001
   c:	000d0c0e 	.word	0x000d0c0e
  10:	0000000c 	.word	0x0000000c
  14:	00000000 	.word	0x00000000
  18:	30004a78 	.word	0x30004a78
  1c:	000001ec 	.word	0x000001ec
